
rtthread-taihu.elf:     file format elf32-powerpc


Disassembly of section .text:

00000000 <version_string>:
       0:	52 54 2d 54 	rlwimi  r20,r18,5,21,10
       4:	68 72 65 61 	xori    r18,r3,25953
       8:	64 20 30 2e 	oris    r0,r1,12334
       c:	34 2e 30 00 	addic.  r1,r14,12288
	...

00000100 <CritcalInput>:
     100:	7e 90 43 a6 	mtsprg  0,r20
     104:	7e b1 43 a6 	mtsprg  1,r21
     108:	7e 80 00 26 	mfcr    r20
     10c:	3a a1 ff 00 	addi    r21,r1,-256
     110:	92 95 00 a8 	stw     r20,168(r21)
     114:	92 d5 00 54 	stw     r22,84(r21)
     118:	92 f5 00 58 	stw     r23,88(r21)
     11c:	7e 90 42 a6 	mfsprg  r20,0
     120:	92 95 00 4c 	stw     r20,76(r21)
     124:	7e d1 42 a6 	mfsprg  r22,1
     128:	92 d5 00 50 	stw     r22,80(r21)
     12c:	7e 88 02 a6 	mflr    r20
     130:	92 95 00 a0 	stw     r20,160(r21)
     134:	7e c9 02 a6 	mfctr   r22
     138:	92 d5 00 9c 	stw     r22,156(r21)
     13c:	7e 84 22 a6 	mfspr   r20,132
     140:	92 95 00 a4 	stw     r20,164(r21)
     144:	7e 95 f2 a6 	mfspr   r20,981
     148:	92 95 00 b4 	stw     r20,180(r21)
     14c:	7e da 0a a6 	mfspr   r22,58
     150:	7e fb 0a a6 	mfspr   r23,59
     154:	90 15 00 00 	stw     r0,0(r21)
     158:	90 35 00 14 	stw     r1,20(r21)
     15c:	90 55 00 04 	stw     r2,4(r21)
     160:	90 35 00 00 	stw     r1,0(r21)
     164:	7e a1 ab 78 	mr      r1,r21
     168:	90 75 00 0c 	stw     r3,12(r21)
     16c:	90 95 00 10 	stw     r4,16(r21)
     170:	90 b5 00 14 	stw     r5,20(r21)
     174:	90 d5 00 18 	stw     r6,24(r21)
     178:	80 6e 80 14 	lwz     r3,-32748(r14)
     17c:	7c 68 03 a6 	mtlr    r3
     180:	38 61 00 10 	addi    r3,r1,16
     184:	3a 80 00 00 	li      r20,0
     188:	52 f4 06 72 	rlwimi  r20,r23,0,25,25
     18c:	4e 80 00 21 	blrl
     190:	00 00 be 30 	.long 0xbe30
     194:	00 00 23 64 	.long 0x2364
	...

00000200 <MachineCheck>:
     200:	7e 90 43 a6 	mtsprg  0,r20
     204:	7e b1 43 a6 	mtsprg  1,r21
     208:	7e 80 00 26 	mfcr    r20
     20c:	3a a1 ff 00 	addi    r21,r1,-256
     210:	92 95 00 a8 	stw     r20,168(r21)
     214:	92 d5 00 54 	stw     r22,84(r21)
     218:	92 f5 00 58 	stw     r23,88(r21)
     21c:	7e 90 42 a6 	mfsprg  r20,0
     220:	92 95 00 4c 	stw     r20,76(r21)
     224:	7e d1 42 a6 	mfsprg  r22,1
     228:	92 d5 00 50 	stw     r22,80(r21)
     22c:	7e 88 02 a6 	mflr    r20
     230:	92 95 00 a0 	stw     r20,160(r21)
     234:	7e c9 02 a6 	mfctr   r22
     238:	92 d5 00 9c 	stw     r22,156(r21)
     23c:	7e 84 22 a6 	mfspr   r20,132
     240:	92 95 00 a4 	stw     r20,164(r21)
     244:	7e 95 f2 a6 	mfspr   r20,981
     248:	92 95 00 b4 	stw     r20,180(r21)
     24c:	7e da 0a a6 	mfspr   r22,58
     250:	7e fb 0a a6 	mfspr   r23,59
     254:	90 15 00 00 	stw     r0,0(r21)
     258:	90 35 00 14 	stw     r1,20(r21)
     25c:	90 55 00 04 	stw     r2,4(r21)
     260:	90 35 00 00 	stw     r1,0(r21)
     264:	7e a1 ab 78 	mr      r1,r21
     268:	90 75 00 0c 	stw     r3,12(r21)
     26c:	90 95 00 10 	stw     r4,16(r21)
     270:	90 b5 00 14 	stw     r5,20(r21)
     274:	90 d5 00 18 	stw     r6,24(r21)
     278:	80 6e 80 14 	lwz     r3,-32748(r14)
     27c:	7c 68 03 a6 	mtlr    r3
     280:	38 61 00 10 	addi    r3,r1,16
     284:	3a 80 00 00 	li      r20,0
     288:	52 f4 06 72 	rlwimi  r20,r23,0,25,25
     28c:	4e 80 00 21 	blrl
     290:	00 00 bb d8 	.long 0xbbd8
     294:	00 00 23 64 	.long 0x2364
	...

00000300 <DataStorage>:
     300:	7e 90 43 a6 	mtsprg  0,r20
     304:	7e b1 43 a6 	mtsprg  1,r21
     308:	7e 80 00 26 	mfcr    r20
     30c:	3a a1 ff 00 	addi    r21,r1,-256
     310:	92 95 00 a8 	stw     r20,168(r21)
     314:	92 d5 00 54 	stw     r22,84(r21)
     318:	92 f5 00 58 	stw     r23,88(r21)
     31c:	7e 90 42 a6 	mfsprg  r20,0
     320:	92 95 00 4c 	stw     r20,76(r21)
     324:	7e d1 42 a6 	mfsprg  r22,1
     328:	92 d5 00 50 	stw     r22,80(r21)
     32c:	7e 88 02 a6 	mflr    r20
     330:	92 95 00 a0 	stw     r20,160(r21)
     334:	7e c9 02 a6 	mfctr   r22
     338:	92 d5 00 9c 	stw     r22,156(r21)
     33c:	7e 84 22 a6 	mfspr   r20,132
     340:	92 95 00 a4 	stw     r20,164(r21)
     344:	7e 95 f2 a6 	mfspr   r20,981
     348:	92 95 00 b4 	stw     r20,180(r21)
     34c:	7e d0 22 a6 	mfcmpa  r22
     350:	7e f4 22 a6 	mficr   r23
     354:	90 15 00 00 	stw     r0,0(r21)
     358:	90 35 00 14 	stw     r1,20(r21)
     35c:	90 55 00 04 	stw     r2,4(r21)
     360:	90 35 00 00 	stw     r1,0(r21)
     364:	7e a1 ab 78 	mr      r1,r21
     368:	90 75 00 0c 	stw     r3,12(r21)
     36c:	90 95 00 10 	stw     r4,16(r21)
     370:	90 b5 00 14 	stw     r5,20(r21)
     374:	90 d5 00 18 	stw     r6,24(r21)
     378:	80 6e 80 14 	lwz     r3,-32748(r14)
     37c:	7c 68 03 a6 	mtlr    r3
     380:	38 61 00 10 	addi    r3,r1,16
     384:	3a 80 10 00 	li      r20,4096
     388:	52 f4 06 72 	rlwimi  r20,r23,0,25,25
     38c:	4e 80 00 21 	blrl
     390:	00 00 be 30 	.long 0xbe30
     394:	00 00 22 68 	.long 0x2268
	...

00000400 <InstStorage>:
     400:	7e 90 43 a6 	mtsprg  0,r20
     404:	7e b1 43 a6 	mtsprg  1,r21
     408:	7e 80 00 26 	mfcr    r20
     40c:	3a a1 ff 00 	addi    r21,r1,-256
     410:	92 95 00 a8 	stw     r20,168(r21)
     414:	92 d5 00 54 	stw     r22,84(r21)
     418:	92 f5 00 58 	stw     r23,88(r21)
     41c:	7e 90 42 a6 	mfsprg  r20,0
     420:	92 95 00 4c 	stw     r20,76(r21)
     424:	7e d1 42 a6 	mfsprg  r22,1
     428:	92 d5 00 50 	stw     r22,80(r21)
     42c:	7e 88 02 a6 	mflr    r20
     430:	92 95 00 a0 	stw     r20,160(r21)
     434:	7e c9 02 a6 	mfctr   r22
     438:	92 d5 00 9c 	stw     r22,156(r21)
     43c:	7e 84 22 a6 	mfspr   r20,132
     440:	92 95 00 a4 	stw     r20,164(r21)
     444:	7e 95 f2 a6 	mfspr   r20,981
     448:	92 95 00 b4 	stw     r20,180(r21)
     44c:	7e d0 22 a6 	mfcmpa  r22
     450:	7e f4 22 a6 	mficr   r23
     454:	90 15 00 00 	stw     r0,0(r21)
     458:	90 35 00 14 	stw     r1,20(r21)
     45c:	90 55 00 04 	stw     r2,4(r21)
     460:	90 35 00 00 	stw     r1,0(r21)
     464:	7e a1 ab 78 	mr      r1,r21
     468:	90 75 00 0c 	stw     r3,12(r21)
     46c:	90 95 00 10 	stw     r4,16(r21)
     470:	90 b5 00 14 	stw     r5,20(r21)
     474:	90 d5 00 18 	stw     r6,24(r21)
     478:	80 6e 80 14 	lwz     r3,-32748(r14)
     47c:	7c 68 03 a6 	mtlr    r3
     480:	38 61 00 10 	addi    r3,r1,16
     484:	3a 80 10 00 	li      r20,4096
     488:	52 f4 06 72 	rlwimi  r20,r23,0,25,25
     48c:	4e 80 00 21 	blrl
     490:	00 00 be 30 	.long 0xbe30
     494:	00 00 22 68 	.long 0x2268
	...

00000500 <ExtInterrupt>:
     500:	38 21 ff 68 	addi    r1,r1,-152
     504:	90 01 00 00 	stw     r0,0(r1)
     508:	bc 41 00 04 	stmw    r2,4(r1)
     50c:	7c 00 42 a6 	mfvrsave r0
     510:	90 01 00 7c 	stw     r0,124(r1)
     514:	7c 00 00 26 	mfcr    r0
     518:	90 01 00 80 	stw     r0,128(r1)
     51c:	7c 01 02 a6 	mfxer   r0
     520:	90 01 00 84 	stw     r0,132(r1)
     524:	7c 09 02 a6 	mfctr   r0
     528:	90 01 00 88 	stw     r0,136(r1)
     52c:	7c 08 02 a6 	mflr    r0
     530:	90 01 00 8c 	stw     r0,140(r1)
     534:	7c 1a 02 a6 	mfsrr0  r0
     538:	90 01 00 90 	stw     r0,144(r1)
     53c:	7c 1b 02 a6 	mfsrr1  r0
     540:	90 01 00 94 	stw     r0,148(r1)
     544:	48 00 56 31 	bl      5b74 <rt_interrupt_enter>
     548:	48 00 b6 2d 	bl      bb74 <external_interrupt>
     54c:	48 00 56 81 	bl      5bcc <rt_interrupt_leave>
     550:	80 01 00 94 	lwz     r0,148(r1)
     554:	7c 1b 03 a6 	mtsrr1  r0
     558:	80 01 00 90 	lwz     r0,144(r1)
     55c:	7c 1a 03 a6 	mtsrr0  r0
     560:	80 01 00 8c 	lwz     r0,140(r1)
     564:	7c 08 03 a6 	mtlr    r0
     568:	80 01 00 88 	lwz     r0,136(r1)
     56c:	7c 09 03 a6 	mtctr   r0
     570:	80 01 00 84 	lwz     r0,132(r1)
     574:	7c 01 03 a6 	mtxer   r0
     578:	80 01 00 80 	lwz     r0,128(r1)
     57c:	7c 0f f1 20 	mtcr    r0
     580:	80 01 00 7c 	lwz     r0,124(r1)
     584:	b8 41 00 04 	lmw     r2,4(r1)
     588:	80 01 00 00 	lwz     r0,0(r1)
     58c:	38 21 00 98 	addi    r1,r1,152
     590:	48 00 bb 2c 	b       c0bc <rt_hw_systemcall_entry>
	...

00000600 <Alignment>:
     600:	7e 90 43 a6 	mtsprg  0,r20
     604:	7e b1 43 a6 	mtsprg  1,r21
     608:	7e 80 00 26 	mfcr    r20
     60c:	3a a1 ff 00 	addi    r21,r1,-256
     610:	92 95 00 a8 	stw     r20,168(r21)
     614:	92 d5 00 54 	stw     r22,84(r21)
     618:	92 f5 00 58 	stw     r23,88(r21)
     61c:	7e 90 42 a6 	mfsprg  r20,0
     620:	92 95 00 4c 	stw     r20,76(r21)
     624:	7e d1 42 a6 	mfsprg  r22,1
     628:	92 d5 00 50 	stw     r22,80(r21)
     62c:	7e 88 02 a6 	mflr    r20
     630:	92 95 00 a0 	stw     r20,160(r21)
     634:	7e c9 02 a6 	mfctr   r22
     638:	92 d5 00 9c 	stw     r22,156(r21)
     63c:	7e 84 22 a6 	mfspr   r20,132
     640:	92 95 00 a4 	stw     r20,164(r21)
     644:	7e 95 f2 a6 	mfspr   r20,981
     648:	92 95 00 b4 	stw     r20,180(r21)
     64c:	7e d0 22 a6 	mfcmpa  r22
     650:	7e f4 22 a6 	mficr   r23
     654:	90 15 00 00 	stw     r0,0(r21)
     658:	90 35 00 14 	stw     r1,20(r21)
     65c:	90 55 00 04 	stw     r2,4(r21)
     660:	90 35 00 00 	stw     r1,0(r21)
     664:	7e a1 ab 78 	mr      r1,r21
     668:	90 75 00 0c 	stw     r3,12(r21)
     66c:	90 95 00 10 	stw     r4,16(r21)
     670:	90 b5 00 14 	stw     r5,20(r21)
     674:	90 d5 00 18 	stw     r6,24(r21)
     678:	7c 93 02 a6 	mfdar   r4
     67c:	90 95 00 b4 	stw     r4,180(r21)
     680:	7c b2 02 a6 	mfdsisr r5
     684:	90 b5 00 b8 	stw     r5,184(r21)
     688:	38 61 00 10 	addi    r3,r1,16
     68c:	3a 80 10 00 	li      r20,4096
     690:	52 f4 04 20 	rlwimi  r20,r23,0,16,16
     694:	80 ce 80 14 	lwz     r6,-32748(r14)
     698:	7c c8 03 a6 	mtlr    r6
     69c:	4e 80 00 21 	blrl
     6a0:	00 00 bc e4 	.long 0xbce4
     6a4:	00 00 22 68 	.long 0x2268
	...

00000700 <ProgramCheck>:
     700:	7e 90 43 a6 	mtsprg  0,r20
     704:	7e b1 43 a6 	mtsprg  1,r21
     708:	7e 80 00 26 	mfcr    r20
     70c:	3a a1 ff 00 	addi    r21,r1,-256
     710:	92 95 00 a8 	stw     r20,168(r21)
     714:	92 d5 00 54 	stw     r22,84(r21)
     718:	92 f5 00 58 	stw     r23,88(r21)
     71c:	7e 90 42 a6 	mfsprg  r20,0
     720:	92 95 00 4c 	stw     r20,76(r21)
     724:	7e d1 42 a6 	mfsprg  r22,1
     728:	92 d5 00 50 	stw     r22,80(r21)
     72c:	7e 88 02 a6 	mflr    r20
     730:	92 95 00 a0 	stw     r20,160(r21)
     734:	7e c9 02 a6 	mfctr   r22
     738:	92 d5 00 9c 	stw     r22,156(r21)
     73c:	7e 84 22 a6 	mfspr   r20,132
     740:	92 95 00 a4 	stw     r20,164(r21)
     744:	7e 95 f2 a6 	mfspr   r20,981
     748:	92 95 00 b4 	stw     r20,180(r21)
     74c:	7e d0 22 a6 	mfcmpa  r22
     750:	7e f4 22 a6 	mficr   r23
     754:	90 15 00 00 	stw     r0,0(r21)
     758:	90 35 00 14 	stw     r1,20(r21)
     75c:	90 55 00 04 	stw     r2,4(r21)
     760:	90 35 00 00 	stw     r1,0(r21)
     764:	7e a1 ab 78 	mr      r1,r21
     768:	90 75 00 0c 	stw     r3,12(r21)
     76c:	90 95 00 10 	stw     r4,16(r21)
     770:	90 b5 00 14 	stw     r5,20(r21)
     774:	90 d5 00 18 	stw     r6,24(r21)
     778:	38 61 00 10 	addi    r3,r1,16
     77c:	3a 80 10 00 	li      r20,4096
     780:	52 f4 04 20 	rlwimi  r20,r23,0,16,16
     784:	80 ce 80 14 	lwz     r6,-32748(r14)
     788:	7c c8 03 a6 	mtlr    r6
     78c:	4e 80 00 21 	blrl
     790:	00 00 bd 38 	.long 0xbd38
     794:	00 00 22 68 	.long 0x2268
	...

00000c00 <SystemCall>:
     c00:	48 00 b4 bc 	b       c0bc <rt_hw_systemcall_entry>
	...

00001000 <PIT>:
    1000:	38 21 ff 68 	addi    r1,r1,-152
    1004:	90 01 00 00 	stw     r0,0(r1)
    1008:	bc 41 00 04 	stmw    r2,4(r1)
    100c:	7c 00 42 a6 	mfvrsave r0
    1010:	90 01 00 7c 	stw     r0,124(r1)
    1014:	7c 00 00 26 	mfcr    r0
    1018:	90 01 00 80 	stw     r0,128(r1)
    101c:	7c 01 02 a6 	mfxer   r0
    1020:	90 01 00 84 	stw     r0,132(r1)
    1024:	7c 09 02 a6 	mfctr   r0
    1028:	90 01 00 88 	stw     r0,136(r1)
    102c:	7c 08 02 a6 	mflr    r0
    1030:	90 01 00 8c 	stw     r0,140(r1)
    1034:	7c 1a 02 a6 	mfsrr0  r0
    1038:	90 01 00 90 	stw     r0,144(r1)
    103c:	7c 1b 02 a6 	mfsrr1  r0
    1040:	90 01 00 94 	stw     r0,148(r1)
    1044:	48 00 4b 31 	bl      5b74 <rt_interrupt_enter>
    1048:	48 00 ad ad 	bl      bdf4 <DecrementerPITException>
    104c:	48 00 4b 81 	bl      5bcc <rt_interrupt_leave>
    1050:	80 01 00 94 	lwz     r0,148(r1)
    1054:	7c 1b 03 a6 	mtsrr1  r0
    1058:	80 01 00 90 	lwz     r0,144(r1)
    105c:	7c 1a 03 a6 	mtsrr0  r0
    1060:	80 01 00 8c 	lwz     r0,140(r1)
    1064:	7c 08 03 a6 	mtlr    r0
    1068:	80 01 00 88 	lwz     r0,136(r1)
    106c:	7c 09 03 a6 	mtctr   r0
    1070:	80 01 00 84 	lwz     r0,132(r1)
    1074:	7c 01 03 a6 	mtxer   r0
    1078:	80 01 00 80 	lwz     r0,128(r1)
    107c:	7c 0f f1 20 	mtcr    r0
    1080:	80 01 00 7c 	lwz     r0,124(r1)
    1084:	b8 41 00 04 	lmw     r2,4(r1)
    1088:	80 01 00 00 	lwz     r0,0(r1)
    108c:	38 21 00 98 	addi    r1,r1,152
    1090:	48 00 b0 2c 	b       c0bc <rt_hw_systemcall_entry>
	...

00001100 <InstructionTLBMiss>:
    1100:	7e 90 43 a6 	mtsprg  0,r20
    1104:	7e b1 43 a6 	mtsprg  1,r21
    1108:	7e 80 00 26 	mfcr    r20
    110c:	3a a1 ff 00 	addi    r21,r1,-256
    1110:	92 95 00 a8 	stw     r20,168(r21)
    1114:	92 d5 00 54 	stw     r22,84(r21)
    1118:	92 f5 00 58 	stw     r23,88(r21)
    111c:	7e 90 42 a6 	mfsprg  r20,0
    1120:	92 95 00 4c 	stw     r20,76(r21)
    1124:	7e d1 42 a6 	mfsprg  r22,1
    1128:	92 d5 00 50 	stw     r22,80(r21)
    112c:	7e 88 02 a6 	mflr    r20
    1130:	92 95 00 a0 	stw     r20,160(r21)
    1134:	7e c9 02 a6 	mfctr   r22
    1138:	92 d5 00 9c 	stw     r22,156(r21)
    113c:	7e 84 22 a6 	mfspr   r20,132
    1140:	92 95 00 a4 	stw     r20,164(r21)
    1144:	7e 95 f2 a6 	mfspr   r20,981
    1148:	92 95 00 b4 	stw     r20,180(r21)
    114c:	7e d0 22 a6 	mfcmpa  r22
    1150:	7e f4 22 a6 	mficr   r23
    1154:	90 15 00 00 	stw     r0,0(r21)
    1158:	90 35 00 14 	stw     r1,20(r21)
    115c:	90 55 00 04 	stw     r2,4(r21)
    1160:	90 35 00 00 	stw     r1,0(r21)
    1164:	7e a1 ab 78 	mr      r1,r21
    1168:	90 75 00 0c 	stw     r3,12(r21)
    116c:	90 95 00 10 	stw     r4,16(r21)
    1170:	90 b5 00 14 	stw     r5,20(r21)
    1174:	90 d5 00 18 	stw     r6,24(r21)
    1178:	80 6e 80 14 	lwz     r3,-32748(r14)
    117c:	7c 68 03 a6 	mtlr    r3
    1180:	38 61 00 10 	addi    r3,r1,16
    1184:	3a 80 10 00 	li      r20,4096
    1188:	52 f4 06 72 	rlwimi  r20,r23,0,25,25
    118c:	4e 80 00 21 	blrl
    1190:	00 00 be 30 	.long 0xbe30
    1194:	00 00 22 68 	.long 0x2268
	...

00001200 <DataTLBMiss>:
    1200:	7e 90 43 a6 	mtsprg  0,r20
    1204:	7e b1 43 a6 	mtsprg  1,r21
    1208:	7e 80 00 26 	mfcr    r20
    120c:	3a a1 ff 00 	addi    r21,r1,-256
    1210:	92 95 00 a8 	stw     r20,168(r21)
    1214:	92 d5 00 54 	stw     r22,84(r21)
    1218:	92 f5 00 58 	stw     r23,88(r21)
    121c:	7e 90 42 a6 	mfsprg  r20,0
    1220:	92 95 00 4c 	stw     r20,76(r21)
    1224:	7e d1 42 a6 	mfsprg  r22,1
    1228:	92 d5 00 50 	stw     r22,80(r21)
    122c:	7e 88 02 a6 	mflr    r20
    1230:	92 95 00 a0 	stw     r20,160(r21)
    1234:	7e c9 02 a6 	mfctr   r22
    1238:	92 d5 00 9c 	stw     r22,156(r21)
    123c:	7e 84 22 a6 	mfspr   r20,132
    1240:	92 95 00 a4 	stw     r20,164(r21)
    1244:	7e 95 f2 a6 	mfspr   r20,981
    1248:	92 95 00 b4 	stw     r20,180(r21)
    124c:	7e d0 22 a6 	mfcmpa  r22
    1250:	7e f4 22 a6 	mficr   r23
    1254:	90 15 00 00 	stw     r0,0(r21)
    1258:	90 35 00 14 	stw     r1,20(r21)
    125c:	90 55 00 04 	stw     r2,4(r21)
    1260:	90 35 00 00 	stw     r1,0(r21)
    1264:	7e a1 ab 78 	mr      r1,r21
    1268:	90 75 00 0c 	stw     r3,12(r21)
    126c:	90 95 00 10 	stw     r4,16(r21)
    1270:	90 b5 00 14 	stw     r5,20(r21)
    1274:	90 d5 00 18 	stw     r6,24(r21)
    1278:	80 6e 80 14 	lwz     r3,-32748(r14)
    127c:	7c 68 03 a6 	mtlr    r3
    1280:	38 61 00 10 	addi    r3,r1,16
    1284:	3a 80 10 00 	li      r20,4096
    1288:	52 f4 06 72 	rlwimi  r20,r23,0,25,25
    128c:	4e 80 00 21 	blrl
    1290:	00 00 be 30 	.long 0xbe30
    1294:	00 00 22 68 	.long 0x2268
	...

00002000 <DebugBreakpoint>:
    2000:	7e 90 43 a6 	mtsprg  0,r20
    2004:	7e b1 43 a6 	mtsprg  1,r21
    2008:	7e 80 00 26 	mfcr    r20
    200c:	3a a1 ff 00 	addi    r21,r1,-256
    2010:	92 95 00 a8 	stw     r20,168(r21)
    2014:	92 d5 00 54 	stw     r22,84(r21)
    2018:	92 f5 00 58 	stw     r23,88(r21)
    201c:	7e 90 42 a6 	mfsprg  r20,0
    2020:	92 95 00 4c 	stw     r20,76(r21)
    2024:	7e d1 42 a6 	mfsprg  r22,1
    2028:	92 d5 00 50 	stw     r22,80(r21)
    202c:	7e 88 02 a6 	mflr    r20
    2030:	92 95 00 a0 	stw     r20,160(r21)
    2034:	7e c9 02 a6 	mfctr   r22
    2038:	92 d5 00 9c 	stw     r22,156(r21)
    203c:	7e 84 22 a6 	mfspr   r20,132
    2040:	92 95 00 a4 	stw     r20,164(r21)
    2044:	7e 95 f2 a6 	mfspr   r20,981
    2048:	92 95 00 b4 	stw     r20,180(r21)
    204c:	7e da 0a a6 	mfspr   r22,58
    2050:	7e fb 0a a6 	mfspr   r23,59
    2054:	90 15 00 00 	stw     r0,0(r21)
    2058:	90 35 00 14 	stw     r1,20(r21)
    205c:	90 55 00 04 	stw     r2,4(r21)
    2060:	90 35 00 00 	stw     r1,0(r21)
    2064:	7e a1 ab 78 	mr      r1,r21
    2068:	90 75 00 0c 	stw     r3,12(r21)
    206c:	90 95 00 10 	stw     r4,16(r21)
    2070:	90 b5 00 14 	stw     r5,20(r21)
    2074:	90 d5 00 18 	stw     r6,24(r21)
    2078:	80 6e 80 14 	lwz     r3,-32748(r14)
    207c:	7c 68 03 a6 	mtlr    r3
    2080:	38 61 00 10 	addi    r3,r1,16
    2084:	3a 80 00 00 	li      r20,0
    2088:	52 f4 06 72 	rlwimi  r20,r23,0,25,25
    208c:	4e 80 00 21 	blrl
    2090:	00 00 be 9c 	.long 0xbe9c
    2094:	00 00 23 64 	.long 0x2364

00002098 <_end_of_vectors>:
	...

00002100 <_start>:
    2100:	38 80 00 00 	li      r4,0
    2104:	7c 99 eb a6 	mtpmc1  r4
    2108:	7c 9b eb a6 	mtsia   r4
    210c:	7c 9c eb a6 	mtmmcr1 r4
    2110:	7c 9a eb a6 	mtpmc2  r4
    2114:	7c 94 f3 a6 	mtspr   980,r4
    2118:	7c 9a f3 a6 	mtspr   986,r4
    211c:	7c 81 03 a6 	mtxer   r4
    2120:	7c 96 f3 a6 	mtspr   982,r4
    2124:	38 80 ff ff 	li      r4,-1
    2128:	7c 90 fb a6 	mtspr   1008,r4
    212c:	48 00 9d c9 	bl      bef4 <invalidate_icache>
    2130:	48 00 9e cd 	bl      bffc <invalidate_dcache>
    2134:	3c 80 c0 00 	lis     r4,-16384
    2138:	60 84 00 01 	ori     r4,r4,1
    213c:	7c 9b fb a6 	mtictc  r4
    2140:	4c 00 01 2c 	isync
    2144:	3c 80 00 00 	lis     r4,0
    2148:	60 84 00 00 	ori     r4,r4,0
    214c:	7c 9a fb a6 	mtspr   1018,r4
    2150:	3c 60 ff ff 	lis     r3,-1
    2154:	60 63 ff ff 	ori     r3,r3,65535
    2158:	7c 60 4b 86 	mtdcr   288,r3
    215c:	3c 60 00 01 	lis     r3,1
    2160:	60 63 bc 00 	ori     r3,r3,48128
    2164:	3c 80 00 01 	lis     r4,1
    2168:	60 84 d6 28 	ori     r4,r4,54824
    216c:	7c 83 20 50 	subf    r4,r3,r4
    2170:	54 84 f0 be 	rlwinm  r4,r4,30,2,31
    2174:	38 a0 00 00 	li      r5,0
    2178:	7c 04 28 40 	cmplw   r4,r5
    217c:	41 82 00 15 	beql    2190 <_start+0x90>
    2180:	38 63 ff fc 	addi    r3,r3,-4
    2184:	7c 89 03 a6 	mtctr   r4
    2188:	94 a3 00 04 	stwu    r5,4(r3)
    218c:	42 00 ff fc 	bdnz    2188 <_start+0x88>
    2190:	3c 20 00 11 	lis     r1,17
    2194:	60 21 d7 00 	ori     r1,r1,55040
    2198:	38 00 00 00 	li      r0,0
    219c:	94 01 ff fc 	stwu    r0,-4(r1)
    21a0:	94 01 ff fc 	stwu    r0,-4(r1)
    21a4:	94 21 ff f8 	stwu    r1,-8(r1)
    21a8:	3c 00 ff ff 	lis     r0,-1
    21ac:	60 00 ff fc 	ori     r0,r0,65532
    21b0:	94 21 ff f8 	stwu    r1,-8(r1)
    21b4:	90 01 00 0c 	stw     r0,12(r1)
    21b8:	48 00 00 05 	bl      21bc <_start+0xbc>
    21bc:	7d c8 02 a6 	mflr    r14
    21c0:	80 0e 02 90 	lwz     r0,656(r14)
    21c4:	7d c0 72 14 	add     r14,r0,r14
    21c8:	48 00 03 b1 	bl      2578 <rtthread_startup>

000021cc <transfer_to_handler>:
    21cc:	92 d5 00 90 	stw     r22,144(r21)
    21d0:	3e c0 00 04 	lis     r22,4
    21d4:	7e f7 b0 78 	andc    r23,r23,r22
    21d8:	92 f5 00 94 	stw     r23,148(r21)
    21dc:	90 f5 00 1c 	stw     r7,28(r21)
    21e0:	91 15 00 20 	stw     r8,32(r21)
    21e4:	91 35 00 24 	stw     r9,36(r21)
    21e8:	91 55 00 28 	stw     r10,40(r21)
    21ec:	91 75 00 2c 	stw     r11,44(r21)
    21f0:	91 95 00 30 	stw     r12,48(r21)
    21f4:	91 b5 00 34 	stw     r13,52(r21)
    21f8:	91 d5 00 38 	stw     r14,56(r21)
    21fc:	91 f5 00 3c 	stw     r15,60(r21)
    2200:	92 15 00 40 	stw     r16,64(r21)
    2204:	92 35 00 44 	stw     r17,68(r21)
    2208:	92 55 00 48 	stw     r18,72(r21)
    220c:	92 75 00 4c 	stw     r19,76(r21)
    2210:	93 15 00 60 	stw     r24,96(r21)
    2214:	93 35 00 64 	stw     r25,100(r21)
    2218:	93 55 00 68 	stw     r26,104(r21)
    221c:	93 75 00 6c 	stw     r27,108(r21)
    2220:	93 95 00 70 	stw     r28,112(r21)
    2224:	93 b5 00 74 	stw     r29,116(r21)
    2228:	93 d5 00 78 	stw     r30,120(r21)
    222c:	93 f5 00 7c 	stw     r31,124(r21)
    2230:	7e e8 02 a6 	mflr    r23
    2234:	72 f8 3f 00 	andi.   r24,r23,16128
    2238:	93 15 00 b0 	stw     r24,176(r21)
    223c:	3a c0 00 00 	li      r22,0
    2240:	92 d5 00 bc 	stw     r22,188(r21)
    2244:	7e d2 43 a6 	mtsprg  2,r22
    2248:	83 17 00 00 	lwz     r24,0(r23)
    224c:	82 f7 00 04 	lwz     r23,4(r23)
    2250:	7f 10 23 a6 	mtcmpa  r24
    2254:	7e 94 23 a6 	mticr   r20
    2258:	7e e8 03 a6 	mtlr    r23
    225c:	7c 00 04 ac 	sync    
    2260:	4c 00 01 2c 	isync
    2264:	4c 00 00 64 	rfi

00002268 <int_return>:
    2268:	38 61 00 10 	addi    r3,r1,16
    226c:	80 81 00 ac 	lwz     r4,172(r1)
    2270:	2c 04 00 00 	cmpwi   r4,0
    2274:	41 82 00 08 	beq     227c <goon_return>

00002278 <switch_stack>:
    2278:	38 24 ff f0 	addi    r1,r4,-16

0000227c <goon_return>:
    227c:	7f 80 00 a6 	mfmsr   r28
    2280:	38 80 00 00 	li      r4,0
    2284:	60 84 80 00 	ori     r4,r4,32768
    2288:	60 84 02 00 	ori     r4,r4,512
    228c:	7f 9c 20 78 	andc    r28,r28,r4
    2290:	7c 00 04 ac 	sync    
    2294:	4c 00 01 2c 	isync
    2298:	7f 80 01 24 	mtmsr   r28
    229c:	7c 00 04 ac 	sync    
    22a0:	4c 00 01 2c 	isync
    22a4:	80 41 00 9c 	lwz     r2,156(r1)
    22a8:	80 01 00 a0 	lwz     r0,160(r1)
    22ac:	7c 49 03 a6 	mtctr   r2
    22b0:	7c 08 03 a6 	mtlr    r0
    22b4:	80 41 00 a4 	lwz     r2,164(r1)
    22b8:	80 01 00 a8 	lwz     r0,168(r1)
    22bc:	7c 44 23 a6 	mtspr   132,r2
    22c0:	7c 0f f1 20 	mtcr    r0
    22c4:	80 61 00 0c 	lwz     r3,12(r1)
    22c8:	80 81 00 10 	lwz     r4,16(r1)
    22cc:	80 a1 00 14 	lwz     r5,20(r1)
    22d0:	80 c1 00 18 	lwz     r6,24(r1)
    22d4:	80 e1 00 1c 	lwz     r7,28(r1)
    22d8:	81 01 00 20 	lwz     r8,32(r1)
    22dc:	81 21 00 24 	lwz     r9,36(r1)
    22e0:	81 41 00 28 	lwz     r10,40(r1)
    22e4:	81 61 00 2c 	lwz     r11,44(r1)
    22e8:	81 81 00 30 	lwz     r12,48(r1)
    22ec:	81 a1 00 34 	lwz     r13,52(r1)
    22f0:	81 c1 00 38 	lwz     r14,56(r1)
    22f4:	81 e1 00 3c 	lwz     r15,60(r1)
    22f8:	82 01 00 40 	lwz     r16,64(r1)
    22fc:	82 21 00 44 	lwz     r17,68(r1)
    2300:	82 41 00 48 	lwz     r18,72(r1)
    2304:	82 61 00 4c 	lwz     r19,76(r1)
    2308:	82 81 00 50 	lwz     r20,80(r1)
    230c:	82 a1 00 54 	lwz     r21,84(r1)
    2310:	82 c1 00 58 	lwz     r22,88(r1)
    2314:	82 e1 00 5c 	lwz     r23,92(r1)
    2318:	83 01 00 60 	lwz     r24,96(r1)
    231c:	83 21 00 64 	lwz     r25,100(r1)
    2320:	83 41 00 68 	lwz     r26,104(r1)
    2324:	83 61 00 6c 	lwz     r27,108(r1)
    2328:	83 81 00 70 	lwz     r28,112(r1)
    232c:	83 a1 00 74 	lwz     r29,116(r1)
    2330:	83 c1 00 78 	lwz     r30,120(r1)
    2334:	83 e1 00 7c 	lwz     r31,124(r1)
    2338:	80 41 00 90 	lwz     r2,144(r1)
    233c:	80 01 00 94 	lwz     r0,148(r1)
    2340:	7c 50 23 a6 	mtcmpa  r2
    2344:	7c 14 23 a6 	mticr   r0
    2348:	80 01 00 00 	lwz     r0,0(r1)
    234c:	80 41 00 04 	lwz     r2,4(r1)
    2350:	80 21 00 14 	lwz     r1,20(r1)
    2354:	7c 00 04 ac 	sync    
    2358:	4c 00 01 2c 	isync
    235c:	4c 00 00 64 	rfi
    2360:	48 00 00 00 	b       2360 <goon_return+0xe4>

00002364 <crit_return>:
    2364:	7f 80 00 a6 	mfmsr   r28
    2368:	38 80 00 00 	li      r4,0
    236c:	60 84 80 00 	ori     r4,r4,32768
    2370:	7f 9c 20 78 	andc    r28,r28,r4
    2374:	7c 00 04 ac 	sync    
    2378:	4c 00 01 2c 	isync
    237c:	7f 80 01 24 	mtmsr   r28
    2380:	7c 00 04 ac 	sync    
    2384:	4c 00 01 2c 	isync
    2388:	80 41 00 9c 	lwz     r2,156(r1)
    238c:	80 01 00 a0 	lwz     r0,160(r1)
    2390:	7c 49 03 a6 	mtctr   r2
    2394:	7c 08 03 a6 	mtlr    r0
    2398:	80 41 00 a4 	lwz     r2,164(r1)
    239c:	80 01 00 a8 	lwz     r0,168(r1)
    23a0:	7c 44 23 a6 	mtspr   132,r2
    23a4:	7c 0f f1 20 	mtcr    r0
    23a8:	80 61 00 0c 	lwz     r3,12(r1)
    23ac:	80 81 00 10 	lwz     r4,16(r1)
    23b0:	80 a1 00 14 	lwz     r5,20(r1)
    23b4:	80 c1 00 18 	lwz     r6,24(r1)
    23b8:	80 e1 00 1c 	lwz     r7,28(r1)
    23bc:	81 01 00 20 	lwz     r8,32(r1)
    23c0:	81 21 00 24 	lwz     r9,36(r1)
    23c4:	81 41 00 28 	lwz     r10,40(r1)
    23c8:	81 61 00 2c 	lwz     r11,44(r1)
    23cc:	81 81 00 30 	lwz     r12,48(r1)
    23d0:	81 a1 00 34 	lwz     r13,52(r1)
    23d4:	81 c1 00 38 	lwz     r14,56(r1)
    23d8:	81 e1 00 3c 	lwz     r15,60(r1)
    23dc:	82 01 00 40 	lwz     r16,64(r1)
    23e0:	82 21 00 44 	lwz     r17,68(r1)
    23e4:	82 41 00 48 	lwz     r18,72(r1)
    23e8:	82 61 00 4c 	lwz     r19,76(r1)
    23ec:	82 81 00 50 	lwz     r20,80(r1)
    23f0:	82 a1 00 54 	lwz     r21,84(r1)
    23f4:	82 c1 00 58 	lwz     r22,88(r1)
    23f8:	82 e1 00 5c 	lwz     r23,92(r1)
    23fc:	83 01 00 60 	lwz     r24,96(r1)
    2400:	83 21 00 64 	lwz     r25,100(r1)
    2404:	83 41 00 68 	lwz     r26,104(r1)
    2408:	83 61 00 6c 	lwz     r27,108(r1)
    240c:	83 81 00 70 	lwz     r28,112(r1)
    2410:	83 a1 00 74 	lwz     r29,116(r1)
    2414:	83 c1 00 78 	lwz     r30,120(r1)
    2418:	83 e1 00 7c 	lwz     r31,124(r1)
    241c:	80 41 00 90 	lwz     r2,144(r1)
    2420:	80 01 00 94 	lwz     r0,148(r1)
    2424:	7c 5a 0b a6 	mtspr   58,r2
    2428:	7c 1b 0b a6 	mtspr   59,r0
    242c:	80 01 00 00 	lwz     r0,0(r1)
    2430:	80 41 00 04 	lwz     r2,4(r1)
    2434:	80 21 00 14 	lwz     r1,20(r1)
    2438:	7c 00 04 ac 	sync    
    243c:	4c 00 01 2c 	isync
    2440:	4c 00 00 66 	rfci

00002444 <get_pvr>:
    2444:	7c 7f 42 a6 	mfpvr   r3
    2448:	4e 80 00 20 	blr
    244c:	00 02 17 44 	.long 0x21744

00002450 <thread1_entry>:
    2450:	94 21 ff d0 	stwu    r1,-48(r1)
    2454:	7c 08 02 a6 	mflr    r0
    2458:	90 01 00 34 	stw     r0,52(r1)
    245c:	93 e1 00 2c 	stw     r31,44(r1)
    2460:	7c 3f 0b 78 	mr      r31,r1
    2464:	90 7f 00 18 	stw     r3,24(r31)
    2468:	39 20 00 00 	li      r9,0
    246c:	91 3f 00 08 	stw     r9,8(r31)
    2470:	48 00 71 d1 	bl      9640 <rt_thread_self>
    2474:	7c 69 1b 78 	mr      r9,r3
    2478:	7d 28 4b 78 	mr      r8,r9
    247c:	81 3f 00 08 	lwz     r9,8(r31)
    2480:	39 49 00 01 	addi    r10,r9,1
    2484:	91 5f 00 08 	stw     r10,8(r31)
    2488:	3d 40 00 02 	lis     r10,2
    248c:	38 6a a0 bc 	addi    r3,r10,-24388
    2490:	7d 04 43 78 	mr      r4,r8
    2494:	7d 25 4b 78 	mr      r5,r9
    2498:	48 00 52 15 	bl      76ac <rt_kprintf>
    249c:	38 60 00 0a 	li      r3,10
    24a0:	48 00 75 d1 	bl      9a70 <rt_thread_delay>
    24a4:	4b ff ff cc 	b       2470 <thread1_entry+0x20>

000024a8 <rt_application_init>:
    24a8:	94 21 ff e0 	stwu    r1,-32(r1)
    24ac:	7c 08 02 a6 	mflr    r0
    24b0:	90 01 00 24 	stw     r0,36(r1)
    24b4:	93 e1 00 1c 	stw     r31,28(r1)
    24b8:	7c 3f 0b 78 	mr      r31,r1
    24bc:	3d 20 00 02 	lis     r9,2
    24c0:	38 69 bc 64 	addi    r3,r9,-17308
    24c4:	3d 20 00 02 	lis     r9,2
    24c8:	38 89 a0 cc 	addi    r4,r9,-24372
    24cc:	3d 20 00 00 	lis     r9,0
    24d0:	38 a9 24 50 	addi    r5,r9,9296
    24d4:	38 c0 00 00 	li      r6,0
    24d8:	3d 20 00 02 	lis     r9,2
    24dc:	38 e9 bc e4 	addi    r7,r9,-17180
    24e0:	39 00 04 00 	li      r8,1024
    24e4:	39 20 00 0a 	li      r9,10
    24e8:	39 40 00 0a 	li      r10,10
    24ec:	48 00 70 c9 	bl      95b4 <rt_thread_init>
    24f0:	90 7f 00 08 	stw     r3,8(r31)
    24f4:	3d 20 00 02 	lis     r9,2
    24f8:	3d 40 00 02 	lis     r10,2
    24fc:	39 4a bc b0 	addi    r10,r10,-17232
    2500:	91 49 bc 00 	stw     r10,-17408(r9)
    2504:	81 3f 00 08 	lwz     r9,8(r31)
    2508:	2f 89 00 00 	cmpwi   cr7,r9,0
    250c:	40 9e 00 10 	bne     cr7,251c <rt_application_init+0x74>
    2510:	3d 20 00 02 	lis     r9,2
    2514:	38 69 bc 64 	addi    r3,r9,-17308
    2518:	48 00 71 51 	bl      9668 <rt_thread_startup>
    251c:	39 20 00 00 	li      r9,0
    2520:	7d 23 4b 78 	mr      r3,r9
    2524:	39 7f 00 20 	addi    r11,r31,32
    2528:	80 0b 00 04 	lwz     r0,4(r11)
    252c:	7c 08 03 a6 	mtlr    r0
    2530:	83 eb ff fc 	lwz     r31,-4(r11)
    2534:	7d 61 5b 78 	mr      r1,r11
    2538:	4e 80 00 20 	blr

0000253c <rt_hw_board_init>:
    253c:	94 21 ff f0 	stwu    r1,-16(r1)
    2540:	7c 08 02 a6 	mflr    r0
    2544:	90 01 00 14 	stw     r0,20(r1)
    2548:	93 e1 00 0c 	stw     r31,12(r1)
    254c:	7c 3f 0b 78 	mr      r31,r1
    2550:	48 00 8f c9 	bl      b518 <rt_hw_serial_init>
    2554:	3d 20 00 02 	lis     r9,2
    2558:	38 69 a0 d0 	addi    r3,r9,-24368
    255c:	48 00 50 95 	bl      75f0 <rt_console_set_device>
    2560:	39 7f 00 10 	addi    r11,r31,16
    2564:	80 0b 00 04 	lwz     r0,4(r11)
    2568:	7c 08 03 a6 	mtlr    r0
    256c:	83 eb ff fc 	lwz     r31,-4(r11)
    2570:	7d 61 5b 78 	mr      r1,r11
    2574:	4e 80 00 20 	blr

00002578 <rtthread_startup>:
    2578:	94 21 ff f0 	stwu    r1,-16(r1)
    257c:	7c 08 02 a6 	mflr    r0
    2580:	90 01 00 14 	stw     r0,20(r1)
    2584:	93 e1 00 0c 	stw     r31,12(r1)
    2588:	7c 3f 0b 78 	mr      r31,r1
    258c:	48 00 87 95 	bl      ad20 <rt_hw_interrupt_init>
    2590:	4b ff ff ad 	bl      253c <rt_hw_board_init>
    2594:	48 00 3f 35 	bl      64c8 <rt_show_version>
    2598:	48 00 00 5d 	bl      25f4 <rt_system_tick_init>
    259c:	48 00 83 ed 	bl      a988 <rt_system_timer_init>
    25a0:	3d 20 00 12 	lis     r9,18
    25a4:	38 69 d7 00 	addi    r3,r9,-10496
    25a8:	3d 20 00 62 	lis     r9,98
    25ac:	38 89 d7 00 	addi    r4,r9,-10496
    25b0:	48 00 55 f1 	bl      7ba0 <rt_system_heap_init>
    25b4:	48 00 67 79 	bl      8d2c <rt_system_scheduler_init>
    25b8:	4b ff fe f1 	bl      24a8 <rt_application_init>
    25bc:	48 00 b3 01 	bl      d8bc <finsh_system_init>
    25c0:	3d 20 00 02 	lis     r9,2
    25c4:	38 69 a0 d8 	addi    r3,r9,-24360
    25c8:	48 00 a1 85 	bl      c74c <finsh_set_device>
    25cc:	48 00 84 29 	bl      a9f4 <rt_system_timer_thread_init>
    25d0:	48 00 0a e1 	bl      30b0 <rt_thread_idle_init>
    25d4:	48 00 67 f5 	bl      8dc8 <rt_system_scheduler_start>
    25d8:	60 00 00 00 	nop
    25dc:	39 7f 00 10 	addi    r11,r31,16
    25e0:	80 0b 00 04 	lwz     r0,4(r11)
    25e4:	7c 08 03 a6 	mtlr    r0
    25e8:	83 eb ff fc 	lwz     r31,-4(r11)
    25ec:	7d 61 5b 78 	mr      r1,r11
    25f0:	4e 80 00 20 	blr

000025f4 <rt_system_tick_init>:
    25f4:	94 21 ff f0 	stwu    r1,-16(r1)
    25f8:	93 e1 00 0c 	stw     r31,12(r1)
    25fc:	7c 3f 0b 78 	mr      r31,r1
    2600:	39 7f 00 10 	addi    r11,r31,16
    2604:	83 eb ff fc 	lwz     r31,-4(r11)
    2608:	7d 61 5b 78 	mr      r1,r11
    260c:	4e 80 00 20 	blr

00002610 <rt_tick_get>:
    2610:	94 21 ff f0 	stwu    r1,-16(r1)
    2614:	93 e1 00 0c 	stw     r31,12(r1)
    2618:	7c 3f 0b 78 	mr      r31,r1
    261c:	3d 20 00 02 	lis     r9,2
    2620:	81 29 c0 e4 	lwz     r9,-16156(r9)
    2624:	7d 23 4b 78 	mr      r3,r9
    2628:	39 7f 00 10 	addi    r11,r31,16
    262c:	83 eb ff fc 	lwz     r31,-4(r11)
    2630:	7d 61 5b 78 	mr      r1,r11
    2634:	4e 80 00 20 	blr

00002638 <rt_tick_set>:
    2638:	94 21 ff d0 	stwu    r1,-48(r1)
    263c:	7c 08 02 a6 	mflr    r0
    2640:	90 01 00 34 	stw     r0,52(r1)
    2644:	93 e1 00 2c 	stw     r31,44(r1)
    2648:	7c 3f 0b 78 	mr      r31,r1
    264c:	90 7f 00 18 	stw     r3,24(r31)
    2650:	48 00 9a 49 	bl      c098 <rt_hw_interrupt_disable>
    2654:	90 7f 00 08 	stw     r3,8(r31)
    2658:	3d 20 00 02 	lis     r9,2
    265c:	81 5f 00 18 	lwz     r10,24(r31)
    2660:	91 49 c0 e4 	stw     r10,-16156(r9)
    2664:	80 7f 00 08 	lwz     r3,8(r31)
    2668:	48 00 9a 49 	bl      c0b0 <rt_hw_interrupt_enable>
    266c:	39 7f 00 30 	addi    r11,r31,48
    2670:	80 0b 00 04 	lwz     r0,4(r11)
    2674:	7c 08 03 a6 	mtlr    r0
    2678:	83 eb ff fc 	lwz     r31,-4(r11)
    267c:	7d 61 5b 78 	mr      r1,r11
    2680:	4e 80 00 20 	blr

00002684 <rt_tick_increase>:
    2684:	94 21 ff e0 	stwu    r1,-32(r1)
    2688:	7c 08 02 a6 	mflr    r0
    268c:	90 01 00 24 	stw     r0,36(r1)
    2690:	93 e1 00 1c 	stw     r31,28(r1)
    2694:	7c 3f 0b 78 	mr      r31,r1
    2698:	3d 20 00 02 	lis     r9,2
    269c:	81 29 c0 e4 	lwz     r9,-16156(r9)
    26a0:	39 49 00 01 	addi    r10,r9,1
    26a4:	3d 20 00 02 	lis     r9,2
    26a8:	91 49 c0 e4 	stw     r10,-16156(r9)
    26ac:	48 00 6f 95 	bl      9640 <rt_thread_self>
    26b0:	90 7f 00 08 	stw     r3,8(r31)
    26b4:	81 3f 00 08 	lwz     r9,8(r31)
    26b8:	81 29 00 48 	lwz     r9,72(r9)
    26bc:	39 49 ff ff 	addi    r10,r9,-1
    26c0:	81 3f 00 08 	lwz     r9,8(r31)
    26c4:	91 49 00 48 	stw     r10,72(r9)
    26c8:	81 3f 00 08 	lwz     r9,8(r31)
    26cc:	81 29 00 48 	lwz     r9,72(r9)
    26d0:	2f 89 00 00 	cmpwi   cr7,r9,0
    26d4:	40 9e 00 18 	bne     cr7,26ec <rt_tick_increase+0x68>
    26d8:	81 3f 00 08 	lwz     r9,8(r31)
    26dc:	81 49 00 44 	lwz     r10,68(r9)
    26e0:	81 3f 00 08 	lwz     r9,8(r31)
    26e4:	91 49 00 48 	stw     r10,72(r9)
    26e8:	48 00 71 fd 	bl      98e4 <rt_thread_yield>
    26ec:	48 00 80 f5 	bl      a7e0 <rt_timer_check>
    26f0:	39 7f 00 20 	addi    r11,r31,32
    26f4:	80 0b 00 04 	lwz     r0,4(r11)
    26f8:	7c 08 03 a6 	mtlr    r0
    26fc:	83 eb ff fc 	lwz     r31,-4(r11)
    2700:	7d 61 5b 78 	mr      r1,r11
    2704:	4e 80 00 20 	blr

00002708 <rt_tick_from_millisecond>:
    2708:	94 21 ff e0 	stwu    r1,-32(r1)
    270c:	93 e1 00 1c 	stw     r31,28(r1)
    2710:	7c 3f 0b 78 	mr      r31,r1
    2714:	90 7f 00 08 	stw     r3,8(r31)
    2718:	81 3f 00 08 	lwz     r9,8(r31)
    271c:	1d 29 00 64 	mulli   r9,r9,100
    2720:	39 49 03 e7 	addi    r10,r9,999
    2724:	3d 20 10 62 	lis     r9,4194
    2728:	61 29 4d d3 	ori     r9,r9,19923
    272c:	7d 2a 48 16 	mulhwu  r9,r10,r9
    2730:	55 29 d1 be 	rlwinm  r9,r9,26,6,31
    2734:	7d 23 4b 78 	mr      r3,r9
    2738:	39 7f 00 20 	addi    r11,r31,32
    273c:	83 eb ff fc 	lwz     r31,-4(r11)
    2740:	7d 61 5b 78 	mr      r1,r11
    2744:	4e 80 00 20 	blr

00002748 <rt_device_register>:
    2748:	94 21 ff e0 	stwu    r1,-32(r1)
    274c:	7c 08 02 a6 	mflr    r0
    2750:	90 01 00 24 	stw     r0,36(r1)
    2754:	93 e1 00 1c 	stw     r31,28(r1)
    2758:	7c 3f 0b 78 	mr      r31,r1
    275c:	90 7f 00 08 	stw     r3,8(r31)
    2760:	90 9f 00 0c 	stw     r4,12(r31)
    2764:	7c a9 2b 78 	mr      r9,r5
    2768:	b1 3f 00 10 	sth     r9,16(r31)
    276c:	81 3f 00 08 	lwz     r9,8(r31)
    2770:	2f 89 00 00 	cmpwi   cr7,r9,0
    2774:	40 9e 00 0c 	bne     cr7,2780 <rt_device_register+0x38>
    2778:	39 20 ff ff 	li      r9,-1
    277c:	48 00 00 50 	b       27cc <rt_device_register+0x84>
    2780:	80 7f 00 0c 	lwz     r3,12(r31)
    2784:	48 00 00 cd 	bl      2850 <rt_device_find>
    2788:	7c 69 1b 78 	mr      r9,r3
    278c:	2f 89 00 00 	cmpwi   cr7,r9,0
    2790:	41 9e 00 0c 	beq     cr7,279c <rt_device_register+0x54>
    2794:	39 20 ff ff 	li      r9,-1
    2798:	48 00 00 34 	b       27cc <rt_device_register+0x84>
    279c:	81 3f 00 08 	lwz     r9,8(r31)
    27a0:	7d 23 4b 78 	mr      r3,r9
    27a4:	38 80 00 07 	li      r4,7
    27a8:	80 bf 00 0c 	lwz     r5,12(r31)
    27ac:	48 00 5f f1 	bl      879c <rt_object_init>
    27b0:	81 3f 00 08 	lwz     r9,8(r31)
    27b4:	a1 5f 00 10 	lhz     r10,16(r31)
    27b8:	b1 49 00 18 	sth     r10,24(r9)
    27bc:	81 3f 00 08 	lwz     r9,8(r31)
    27c0:	39 40 00 00 	li      r10,0
    27c4:	99 49 00 1c 	stb     r10,28(r9)
    27c8:	39 20 00 00 	li      r9,0
    27cc:	7d 23 4b 78 	mr      r3,r9
    27d0:	39 7f 00 20 	addi    r11,r31,32
    27d4:	80 0b 00 04 	lwz     r0,4(r11)
    27d8:	7c 08 03 a6 	mtlr    r0
    27dc:	83 eb ff fc 	lwz     r31,-4(r11)
    27e0:	7d 61 5b 78 	mr      r1,r11
    27e4:	4e 80 00 20 	blr

000027e8 <rt_device_unregister>:
    27e8:	94 21 ff e0 	stwu    r1,-32(r1)
    27ec:	7c 08 02 a6 	mflr    r0
    27f0:	90 01 00 24 	stw     r0,36(r1)
    27f4:	93 e1 00 1c 	stw     r31,28(r1)
    27f8:	7c 3f 0b 78 	mr      r31,r1
    27fc:	90 7f 00 08 	stw     r3,8(r31)
    2800:	81 3f 00 08 	lwz     r9,8(r31)
    2804:	7d 23 4b 78 	mr      r3,r9
    2808:	48 00 60 6d 	bl      8874 <rt_object_detach>
    280c:	39 20 00 00 	li      r9,0
    2810:	7d 23 4b 78 	mr      r3,r9
    2814:	39 7f 00 20 	addi    r11,r31,32
    2818:	80 0b 00 04 	lwz     r0,4(r11)
    281c:	7c 08 03 a6 	mtlr    r0
    2820:	83 eb ff fc 	lwz     r31,-4(r11)
    2824:	7d 61 5b 78 	mr      r1,r11
    2828:	4e 80 00 20 	blr

0000282c <rt_device_init_all>:
    282c:	94 21 ff f0 	stwu    r1,-16(r1)
    2830:	93 e1 00 0c 	stw     r31,12(r1)
    2834:	7c 3f 0b 78 	mr      r31,r1
    2838:	39 20 00 00 	li      r9,0
    283c:	7d 23 4b 78 	mr      r3,r9
    2840:	39 7f 00 10 	addi    r11,r31,16
    2844:	83 eb ff fc 	lwz     r31,-4(r11)
    2848:	7d 61 5b 78 	mr      r1,r11
    284c:	4e 80 00 20 	blr

00002850 <rt_device_find>:
    2850:	94 21 ff d0 	stwu    r1,-48(r1)
    2854:	7c 08 02 a6 	mflr    r0
    2858:	90 01 00 34 	stw     r0,52(r1)
    285c:	93 e1 00 2c 	stw     r31,44(r1)
    2860:	7c 3f 0b 78 	mr      r31,r1
    2864:	90 7f 00 18 	stw     r3,24(r31)
    2868:	48 00 6d d9 	bl      9640 <rt_thread_self>
    286c:	7c 69 1b 78 	mr      r9,r3
    2870:	2f 89 00 00 	cmpwi   cr7,r9,0
    2874:	41 9e 00 08 	beq     cr7,287c <rt_device_find+0x2c>
    2878:	48 00 68 5d 	bl      90d4 <rt_enter_critical>
    287c:	3d 20 00 02 	lis     r9,2
    2880:	39 29 b9 94 	addi    r9,r9,-18028
    2884:	91 3f 00 0c 	stw     r9,12(r31)
    2888:	81 3f 00 0c 	lwz     r9,12(r31)
    288c:	81 29 00 04 	lwz     r9,4(r9)
    2890:	91 3f 00 08 	stw     r9,8(r31)
    2894:	48 00 00 58 	b       28ec <rt_device_find+0x9c>
    2898:	81 3f 00 08 	lwz     r9,8(r31)
    289c:	39 29 ff f4 	addi    r9,r9,-12
    28a0:	91 3f 00 10 	stw     r9,16(r31)
    28a4:	81 3f 00 10 	lwz     r9,16(r31)
    28a8:	7d 23 4b 78 	mr      r3,r9
    28ac:	80 9f 00 18 	lwz     r4,24(r31)
    28b0:	38 a0 00 08 	li      r5,8
    28b4:	48 00 39 fd 	bl      62b0 <rt_strncmp>
    28b8:	7c 69 1b 78 	mr      r9,r3
    28bc:	2f 89 00 00 	cmpwi   cr7,r9,0
    28c0:	40 9e 00 20 	bne     cr7,28e0 <rt_device_find+0x90>
    28c4:	48 00 6d 7d 	bl      9640 <rt_thread_self>
    28c8:	7c 69 1b 78 	mr      r9,r3
    28cc:	2f 89 00 00 	cmpwi   cr7,r9,0
    28d0:	41 9e 00 08 	beq     cr7,28d8 <rt_device_find+0x88>
    28d4:	48 00 68 69 	bl      913c <rt_exit_critical>
    28d8:	81 3f 00 10 	lwz     r9,16(r31)
    28dc:	48 00 00 3c 	b       2918 <rt_device_find+0xc8>
    28e0:	81 3f 00 08 	lwz     r9,8(r31)
    28e4:	81 29 00 00 	lwz     r9,0(r9)
    28e8:	91 3f 00 08 	stw     r9,8(r31)
    28ec:	81 3f 00 0c 	lwz     r9,12(r31)
    28f0:	39 49 00 04 	addi    r10,r9,4
    28f4:	81 3f 00 08 	lwz     r9,8(r31)
    28f8:	7f 8a 48 00 	cmpw    cr7,r10,r9
    28fc:	40 9e ff 9c 	bne     cr7,2898 <rt_device_find+0x48>
    2900:	48 00 6d 41 	bl      9640 <rt_thread_self>
    2904:	7c 69 1b 78 	mr      r9,r3
    2908:	2f 89 00 00 	cmpwi   cr7,r9,0
    290c:	41 9e 00 08 	beq     cr7,2914 <rt_device_find+0xc4>
    2910:	48 00 68 2d 	bl      913c <rt_exit_critical>
    2914:	39 20 00 00 	li      r9,0
    2918:	7d 23 4b 78 	mr      r3,r9
    291c:	39 7f 00 30 	addi    r11,r31,48
    2920:	80 0b 00 04 	lwz     r0,4(r11)
    2924:	7c 08 03 a6 	mtlr    r0
    2928:	83 eb ff fc 	lwz     r31,-4(r11)
    292c:	7d 61 5b 78 	mr      r1,r11
    2930:	4e 80 00 20 	blr

00002934 <rt_device_init>:
    2934:	94 21 ff d0 	stwu    r1,-48(r1)
    2938:	7c 08 02 a6 	mflr    r0
    293c:	90 01 00 34 	stw     r0,52(r1)
    2940:	93 e1 00 2c 	stw     r31,44(r1)
    2944:	7c 3f 0b 78 	mr      r31,r1
    2948:	90 7f 00 18 	stw     r3,24(r31)
    294c:	39 20 00 00 	li      r9,0
    2950:	91 3f 00 08 	stw     r9,8(r31)
    2954:	81 3f 00 18 	lwz     r9,24(r31)
    2958:	81 29 00 28 	lwz     r9,40(r9)
    295c:	2f 89 00 00 	cmpwi   cr7,r9,0
    2960:	41 9e 00 78 	beq     cr7,29d8 <rt_device_init+0xa4>
    2964:	81 3f 00 18 	lwz     r9,24(r31)
    2968:	a1 29 00 18 	lhz     r9,24(r9)
    296c:	55 29 04 3e 	clrlwi  r9,r9,16
    2970:	55 29 06 f6 	rlwinm  r9,r9,0,27,27
    2974:	2f 89 00 00 	cmpwi   cr7,r9,0
    2978:	40 9e 00 60 	bne     cr7,29d8 <rt_device_init+0xa4>
    297c:	81 3f 00 18 	lwz     r9,24(r31)
    2980:	81 29 00 28 	lwz     r9,40(r9)
    2984:	80 7f 00 18 	lwz     r3,24(r31)
    2988:	7d 29 03 a6 	mtctr   r9
    298c:	4e 80 04 21 	bctrl
    2990:	90 7f 00 08 	stw     r3,8(r31)
    2994:	81 3f 00 08 	lwz     r9,8(r31)
    2998:	2f 89 00 00 	cmpwi   cr7,r9,0
    299c:	41 9e 00 20 	beq     cr7,29bc <rt_device_init+0x88>
    29a0:	81 5f 00 18 	lwz     r10,24(r31)
    29a4:	3d 20 00 02 	lis     r9,2
    29a8:	38 69 a0 e0 	addi    r3,r9,-24352
    29ac:	7d 44 53 78 	mr      r4,r10
    29b0:	80 bf 00 08 	lwz     r5,8(r31)
    29b4:	48 00 4c f9 	bl      76ac <rt_kprintf>
    29b8:	48 00 00 20 	b       29d8 <rt_device_init+0xa4>
    29bc:	81 3f 00 18 	lwz     r9,24(r31)
    29c0:	a1 29 00 18 	lhz     r9,24(r9)
    29c4:	55 29 04 3e 	clrlwi  r9,r9,16
    29c8:	61 29 00 10 	ori     r9,r9,16
    29cc:	55 2a 04 3e 	clrlwi  r10,r9,16
    29d0:	81 3f 00 18 	lwz     r9,24(r31)
    29d4:	b1 49 00 18 	sth     r10,24(r9)
    29d8:	81 3f 00 08 	lwz     r9,8(r31)
    29dc:	7d 23 4b 78 	mr      r3,r9
    29e0:	39 7f 00 30 	addi    r11,r31,48
    29e4:	80 0b 00 04 	lwz     r0,4(r11)
    29e8:	7c 08 03 a6 	mtlr    r0
    29ec:	83 eb ff fc 	lwz     r31,-4(r11)
    29f0:	7d 61 5b 78 	mr      r1,r11
    29f4:	4e 80 00 20 	blr

000029f8 <rt_device_open>:
    29f8:	94 21 ff d0 	stwu    r1,-48(r1)
    29fc:	7c 08 02 a6 	mflr    r0
    2a00:	90 01 00 34 	stw     r0,52(r1)
    2a04:	93 e1 00 2c 	stw     r31,44(r1)
    2a08:	7c 3f 0b 78 	mr      r31,r1
    2a0c:	90 7f 00 18 	stw     r3,24(r31)
    2a10:	7c 89 23 78 	mr      r9,r4
    2a14:	b1 3f 00 1c 	sth     r9,28(r31)
    2a18:	39 20 00 00 	li      r9,0
    2a1c:	91 3f 00 08 	stw     r9,8(r31)
    2a20:	81 3f 00 18 	lwz     r9,24(r31)
    2a24:	a1 29 00 18 	lhz     r9,24(r9)
    2a28:	55 29 04 3e 	clrlwi  r9,r9,16
    2a2c:	55 29 06 f6 	rlwinm  r9,r9,0,27,27
    2a30:	2f 89 00 00 	cmpwi   cr7,r9,0
    2a34:	40 9e 00 74 	bne     cr7,2aa8 <rt_device_open+0xb0>
    2a38:	81 3f 00 18 	lwz     r9,24(r31)
    2a3c:	81 29 00 28 	lwz     r9,40(r9)
    2a40:	2f 89 00 00 	cmpwi   cr7,r9,0
    2a44:	41 9e 00 48 	beq     cr7,2a8c <rt_device_open+0x94>
    2a48:	81 3f 00 18 	lwz     r9,24(r31)
    2a4c:	81 29 00 28 	lwz     r9,40(r9)
    2a50:	80 7f 00 18 	lwz     r3,24(r31)
    2a54:	7d 29 03 a6 	mtctr   r9
    2a58:	4e 80 04 21 	bctrl
    2a5c:	90 7f 00 08 	stw     r3,8(r31)
    2a60:	81 3f 00 08 	lwz     r9,8(r31)
    2a64:	2f 89 00 00 	cmpwi   cr7,r9,0
    2a68:	41 9e 00 24 	beq     cr7,2a8c <rt_device_open+0x94>
    2a6c:	81 5f 00 18 	lwz     r10,24(r31)
    2a70:	3d 20 00 02 	lis     r9,2
    2a74:	38 69 a0 e0 	addi    r3,r9,-24352
    2a78:	7d 44 53 78 	mr      r4,r10
    2a7c:	80 bf 00 08 	lwz     r5,8(r31)
    2a80:	48 00 4c 2d 	bl      76ac <rt_kprintf>
    2a84:	81 3f 00 08 	lwz     r9,8(r31)
    2a88:	48 00 00 dc 	b       2b64 <rt_device_open+0x16c>
    2a8c:	81 3f 00 18 	lwz     r9,24(r31)
    2a90:	a1 29 00 18 	lhz     r9,24(r9)
    2a94:	55 29 04 3e 	clrlwi  r9,r9,16
    2a98:	61 29 00 10 	ori     r9,r9,16
    2a9c:	55 2a 04 3e 	clrlwi  r10,r9,16
    2aa0:	81 3f 00 18 	lwz     r9,24(r31)
    2aa4:	b1 49 00 18 	sth     r10,24(r9)
    2aa8:	81 3f 00 18 	lwz     r9,24(r31)
    2aac:	a1 29 00 18 	lhz     r9,24(r9)
    2ab0:	55 29 04 3e 	clrlwi  r9,r9,16
    2ab4:	55 29 07 38 	rlwinm  r9,r9,0,28,28
    2ab8:	2f 89 00 00 	cmpwi   cr7,r9,0
    2abc:	41 9e 00 24 	beq     cr7,2ae0 <rt_device_open+0xe8>
    2ac0:	81 3f 00 18 	lwz     r9,24(r31)
    2ac4:	a1 29 00 1a 	lhz     r9,26(r9)
    2ac8:	55 29 04 3e 	clrlwi  r9,r9,16
    2acc:	55 29 07 38 	rlwinm  r9,r9,0,28,28
    2ad0:	2f 89 00 00 	cmpwi   cr7,r9,0
    2ad4:	41 9e 00 0c 	beq     cr7,2ae0 <rt_device_open+0xe8>
    2ad8:	39 20 ff f9 	li      r9,-7
    2adc:	48 00 00 88 	b       2b64 <rt_device_open+0x16c>
    2ae0:	81 3f 00 18 	lwz     r9,24(r31)
    2ae4:	81 29 00 2c 	lwz     r9,44(r9)
    2ae8:	2f 89 00 00 	cmpwi   cr7,r9,0
    2aec:	41 9e 00 28 	beq     cr7,2b14 <rt_device_open+0x11c>
    2af0:	81 3f 00 18 	lwz     r9,24(r31)
    2af4:	81 29 00 2c 	lwz     r9,44(r9)
    2af8:	a1 5f 00 1c 	lhz     r10,28(r31)
    2afc:	55 4a 04 3e 	clrlwi  r10,r10,16
    2b00:	80 7f 00 18 	lwz     r3,24(r31)
    2b04:	7d 44 53 78 	mr      r4,r10
    2b08:	7d 29 03 a6 	mtctr   r9
    2b0c:	4e 80 04 21 	bctrl
    2b10:	90 7f 00 08 	stw     r3,8(r31)
    2b14:	81 3f 00 08 	lwz     r9,8(r31)
    2b18:	2f 89 00 00 	cmpwi   cr7,r9,0
    2b1c:	41 9e 00 14 	beq     cr7,2b30 <rt_device_open+0x138>
    2b20:	81 5f 00 08 	lwz     r10,8(r31)
    2b24:	39 20 ff fa 	li      r9,-6
    2b28:	7f 8a 48 00 	cmpw    cr7,r10,r9
    2b2c:	40 9e 00 34 	bne     cr7,2b60 <rt_device_open+0x168>
    2b30:	a1 3f 00 1c 	lhz     r9,28(r31)
    2b34:	61 29 00 08 	ori     r9,r9,8
    2b38:	55 2a 04 3e 	clrlwi  r10,r9,16
    2b3c:	81 3f 00 18 	lwz     r9,24(r31)
    2b40:	b1 49 00 1a 	sth     r10,26(r9)
    2b44:	81 3f 00 18 	lwz     r9,24(r31)
    2b48:	89 29 00 1c 	lbz     r9,28(r9)
    2b4c:	55 29 06 3e 	clrlwi  r9,r9,24
    2b50:	39 29 00 01 	addi    r9,r9,1
    2b54:	55 2a 06 3e 	clrlwi  r10,r9,24
    2b58:	81 3f 00 18 	lwz     r9,24(r31)
    2b5c:	99 49 00 1c 	stb     r10,28(r9)
    2b60:	81 3f 00 08 	lwz     r9,8(r31)
    2b64:	7d 23 4b 78 	mr      r3,r9
    2b68:	39 7f 00 30 	addi    r11,r31,48
    2b6c:	80 0b 00 04 	lwz     r0,4(r11)
    2b70:	7c 08 03 a6 	mtlr    r0
    2b74:	83 eb ff fc 	lwz     r31,-4(r11)
    2b78:	7d 61 5b 78 	mr      r1,r11
    2b7c:	4e 80 00 20 	blr

00002b80 <rt_device_close>:
    2b80:	94 21 ff d0 	stwu    r1,-48(r1)
    2b84:	7c 08 02 a6 	mflr    r0
    2b88:	90 01 00 34 	stw     r0,52(r1)
    2b8c:	93 e1 00 2c 	stw     r31,44(r1)
    2b90:	7c 3f 0b 78 	mr      r31,r1
    2b94:	90 7f 00 18 	stw     r3,24(r31)
    2b98:	39 20 00 00 	li      r9,0
    2b9c:	91 3f 00 08 	stw     r9,8(r31)
    2ba0:	81 3f 00 18 	lwz     r9,24(r31)
    2ba4:	89 29 00 1c 	lbz     r9,28(r9)
    2ba8:	55 29 06 3e 	clrlwi  r9,r9,24
    2bac:	2f 89 00 00 	cmpwi   cr7,r9,0
    2bb0:	40 9e 00 0c 	bne     cr7,2bbc <rt_device_close+0x3c>
    2bb4:	39 20 ff ff 	li      r9,-1
    2bb8:	48 00 00 90 	b       2c48 <rt_device_close+0xc8>
    2bbc:	81 3f 00 18 	lwz     r9,24(r31)
    2bc0:	89 29 00 1c 	lbz     r9,28(r9)
    2bc4:	55 29 06 3e 	clrlwi  r9,r9,24
    2bc8:	39 29 ff ff 	addi    r9,r9,-1
    2bcc:	55 2a 06 3e 	clrlwi  r10,r9,24
    2bd0:	81 3f 00 18 	lwz     r9,24(r31)
    2bd4:	99 49 00 1c 	stb     r10,28(r9)
    2bd8:	81 3f 00 18 	lwz     r9,24(r31)
    2bdc:	89 29 00 1c 	lbz     r9,28(r9)
    2be0:	55 29 06 3e 	clrlwi  r9,r9,24
    2be4:	2f 89 00 00 	cmpwi   cr7,r9,0
    2be8:	41 9e 00 0c 	beq     cr7,2bf4 <rt_device_close+0x74>
    2bec:	39 20 00 00 	li      r9,0
    2bf0:	48 00 00 58 	b       2c48 <rt_device_close+0xc8>
    2bf4:	81 3f 00 18 	lwz     r9,24(r31)
    2bf8:	81 29 00 30 	lwz     r9,48(r9)
    2bfc:	2f 89 00 00 	cmpwi   cr7,r9,0
    2c00:	41 9e 00 1c 	beq     cr7,2c1c <rt_device_close+0x9c>
    2c04:	81 3f 00 18 	lwz     r9,24(r31)
    2c08:	81 29 00 30 	lwz     r9,48(r9)
    2c0c:	80 7f 00 18 	lwz     r3,24(r31)
    2c10:	7d 29 03 a6 	mtctr   r9
    2c14:	4e 80 04 21 	bctrl
    2c18:	90 7f 00 08 	stw     r3,8(r31)
    2c1c:	81 3f 00 08 	lwz     r9,8(r31)
    2c20:	2f 89 00 00 	cmpwi   cr7,r9,0
    2c24:	41 9e 00 14 	beq     cr7,2c38 <rt_device_close+0xb8>
    2c28:	81 5f 00 08 	lwz     r10,8(r31)
    2c2c:	39 20 ff fa 	li      r9,-6
    2c30:	7f 8a 48 00 	cmpw    cr7,r10,r9
    2c34:	40 9e 00 10 	bne     cr7,2c44 <rt_device_close+0xc4>
    2c38:	81 3f 00 18 	lwz     r9,24(r31)
    2c3c:	39 40 00 00 	li      r10,0
    2c40:	b1 49 00 1a 	sth     r10,26(r9)
    2c44:	81 3f 00 08 	lwz     r9,8(r31)
    2c48:	7d 23 4b 78 	mr      r3,r9
    2c4c:	39 7f 00 30 	addi    r11,r31,48
    2c50:	80 0b 00 04 	lwz     r0,4(r11)
    2c54:	7c 08 03 a6 	mtlr    r0
    2c58:	83 eb ff fc 	lwz     r31,-4(r11)
    2c5c:	7d 61 5b 78 	mr      r1,r11
    2c60:	4e 80 00 20 	blr

00002c64 <rt_device_read>:
    2c64:	94 21 ff e0 	stwu    r1,-32(r1)
    2c68:	7c 08 02 a6 	mflr    r0
    2c6c:	90 01 00 24 	stw     r0,36(r1)
    2c70:	93 e1 00 1c 	stw     r31,28(r1)
    2c74:	7c 3f 0b 78 	mr      r31,r1
    2c78:	90 7f 00 08 	stw     r3,8(r31)
    2c7c:	90 9f 00 0c 	stw     r4,12(r31)
    2c80:	90 bf 00 10 	stw     r5,16(r31)
    2c84:	90 df 00 14 	stw     r6,20(r31)
    2c88:	81 3f 00 08 	lwz     r9,8(r31)
    2c8c:	89 29 00 1c 	lbz     r9,28(r9)
    2c90:	55 29 06 3e 	clrlwi  r9,r9,24
    2c94:	2f 89 00 00 	cmpwi   cr7,r9,0
    2c98:	40 9e 00 14 	bne     cr7,2cac <rt_device_read+0x48>
    2c9c:	38 60 ff ff 	li      r3,-1
    2ca0:	48 00 30 25 	bl      5cc4 <rt_set_errno>
    2ca4:	39 20 00 00 	li      r9,0
    2ca8:	48 00 00 48 	b       2cf0 <rt_device_read+0x8c>
    2cac:	81 3f 00 08 	lwz     r9,8(r31)
    2cb0:	81 29 00 34 	lwz     r9,52(r9)
    2cb4:	2f 89 00 00 	cmpwi   cr7,r9,0
    2cb8:	41 9e 00 2c 	beq     cr7,2ce4 <rt_device_read+0x80>
    2cbc:	81 3f 00 08 	lwz     r9,8(r31)
    2cc0:	81 29 00 34 	lwz     r9,52(r9)
    2cc4:	80 7f 00 08 	lwz     r3,8(r31)
    2cc8:	80 9f 00 0c 	lwz     r4,12(r31)
    2ccc:	80 bf 00 10 	lwz     r5,16(r31)
    2cd0:	80 df 00 14 	lwz     r6,20(r31)
    2cd4:	7d 29 03 a6 	mtctr   r9
    2cd8:	4e 80 04 21 	bctrl
    2cdc:	7c 69 1b 78 	mr      r9,r3
    2ce0:	48 00 00 10 	b       2cf0 <rt_device_read+0x8c>
    2ce4:	38 60 ff fa 	li      r3,-6
    2ce8:	48 00 2f dd 	bl      5cc4 <rt_set_errno>
    2cec:	39 20 00 00 	li      r9,0
    2cf0:	7d 23 4b 78 	mr      r3,r9
    2cf4:	39 7f 00 20 	addi    r11,r31,32
    2cf8:	80 0b 00 04 	lwz     r0,4(r11)
    2cfc:	7c 08 03 a6 	mtlr    r0
    2d00:	83 eb ff fc 	lwz     r31,-4(r11)
    2d04:	7d 61 5b 78 	mr      r1,r11
    2d08:	4e 80 00 20 	blr

00002d0c <rt_device_write>:
    2d0c:	94 21 ff e0 	stwu    r1,-32(r1)
    2d10:	7c 08 02 a6 	mflr    r0
    2d14:	90 01 00 24 	stw     r0,36(r1)
    2d18:	93 e1 00 1c 	stw     r31,28(r1)
    2d1c:	7c 3f 0b 78 	mr      r31,r1
    2d20:	90 7f 00 08 	stw     r3,8(r31)
    2d24:	90 9f 00 0c 	stw     r4,12(r31)
    2d28:	90 bf 00 10 	stw     r5,16(r31)
    2d2c:	90 df 00 14 	stw     r6,20(r31)
    2d30:	81 3f 00 08 	lwz     r9,8(r31)
    2d34:	89 29 00 1c 	lbz     r9,28(r9)
    2d38:	55 29 06 3e 	clrlwi  r9,r9,24
    2d3c:	2f 89 00 00 	cmpwi   cr7,r9,0
    2d40:	40 9e 00 14 	bne     cr7,2d54 <rt_device_write+0x48>
    2d44:	38 60 ff ff 	li      r3,-1
    2d48:	48 00 2f 7d 	bl      5cc4 <rt_set_errno>
    2d4c:	39 20 00 00 	li      r9,0
    2d50:	48 00 00 48 	b       2d98 <rt_device_write+0x8c>
    2d54:	81 3f 00 08 	lwz     r9,8(r31)
    2d58:	81 29 00 38 	lwz     r9,56(r9)
    2d5c:	2f 89 00 00 	cmpwi   cr7,r9,0
    2d60:	41 9e 00 2c 	beq     cr7,2d8c <rt_device_write+0x80>
    2d64:	81 3f 00 08 	lwz     r9,8(r31)
    2d68:	81 29 00 38 	lwz     r9,56(r9)
    2d6c:	80 7f 00 08 	lwz     r3,8(r31)
    2d70:	80 9f 00 0c 	lwz     r4,12(r31)
    2d74:	80 bf 00 10 	lwz     r5,16(r31)
    2d78:	80 df 00 14 	lwz     r6,20(r31)
    2d7c:	7d 29 03 a6 	mtctr   r9
    2d80:	4e 80 04 21 	bctrl
    2d84:	7c 69 1b 78 	mr      r9,r3
    2d88:	48 00 00 10 	b       2d98 <rt_device_write+0x8c>
    2d8c:	38 60 ff fa 	li      r3,-6
    2d90:	48 00 2f 35 	bl      5cc4 <rt_set_errno>
    2d94:	39 20 00 00 	li      r9,0
    2d98:	7d 23 4b 78 	mr      r3,r9
    2d9c:	39 7f 00 20 	addi    r11,r31,32
    2da0:	80 0b 00 04 	lwz     r0,4(r11)
    2da4:	7c 08 03 a6 	mtlr    r0
    2da8:	83 eb ff fc 	lwz     r31,-4(r11)
    2dac:	7d 61 5b 78 	mr      r1,r11
    2db0:	4e 80 00 20 	blr

00002db4 <rt_device_control>:
    2db4:	94 21 ff e0 	stwu    r1,-32(r1)
    2db8:	7c 08 02 a6 	mflr    r0
    2dbc:	90 01 00 24 	stw     r0,36(r1)
    2dc0:	93 e1 00 1c 	stw     r31,28(r1)
    2dc4:	7c 3f 0b 78 	mr      r31,r1
    2dc8:	90 7f 00 08 	stw     r3,8(r31)
    2dcc:	7c 89 23 78 	mr      r9,r4
    2dd0:	90 bf 00 10 	stw     r5,16(r31)
    2dd4:	99 3f 00 0c 	stb     r9,12(r31)
    2dd8:	81 3f 00 08 	lwz     r9,8(r31)
    2ddc:	81 29 00 3c 	lwz     r9,60(r9)
    2de0:	2f 89 00 00 	cmpwi   cr7,r9,0
    2de4:	41 9e 00 30 	beq     cr7,2e14 <rt_device_control+0x60>
    2de8:	81 3f 00 08 	lwz     r9,8(r31)
    2dec:	81 29 00 3c 	lwz     r9,60(r9)
    2df0:	89 5f 00 0c 	lbz     r10,12(r31)
    2df4:	55 4a 06 3e 	clrlwi  r10,r10,24
    2df8:	80 7f 00 08 	lwz     r3,8(r31)
    2dfc:	7d 44 53 78 	mr      r4,r10
    2e00:	80 bf 00 10 	lwz     r5,16(r31)
    2e04:	7d 29 03 a6 	mtctr   r9
    2e08:	4e 80 04 21 	bctrl
    2e0c:	7c 69 1b 78 	mr      r9,r3
    2e10:	48 00 00 08 	b       2e18 <rt_device_control+0x64>
    2e14:	39 20 00 00 	li      r9,0
    2e18:	7d 23 4b 78 	mr      r3,r9
    2e1c:	39 7f 00 20 	addi    r11,r31,32
    2e20:	80 0b 00 04 	lwz     r0,4(r11)
    2e24:	7c 08 03 a6 	mtlr    r0
    2e28:	83 eb ff fc 	lwz     r31,-4(r11)
    2e2c:	7d 61 5b 78 	mr      r1,r11
    2e30:	4e 80 00 20 	blr

00002e34 <rt_device_set_rx_indicate>:
    2e34:	94 21 ff e0 	stwu    r1,-32(r1)
    2e38:	93 e1 00 1c 	stw     r31,28(r1)
    2e3c:	7c 3f 0b 78 	mr      r31,r1
    2e40:	90 7f 00 08 	stw     r3,8(r31)
    2e44:	90 9f 00 0c 	stw     r4,12(r31)
    2e48:	81 3f 00 08 	lwz     r9,8(r31)
    2e4c:	81 5f 00 0c 	lwz     r10,12(r31)
    2e50:	91 49 00 20 	stw     r10,32(r9)
    2e54:	39 20 00 00 	li      r9,0
    2e58:	7d 23 4b 78 	mr      r3,r9
    2e5c:	39 7f 00 20 	addi    r11,r31,32
    2e60:	83 eb ff fc 	lwz     r31,-4(r11)
    2e64:	7d 61 5b 78 	mr      r1,r11
    2e68:	4e 80 00 20 	blr

00002e6c <rt_device_set_tx_complete>:
    2e6c:	94 21 ff e0 	stwu    r1,-32(r1)
    2e70:	93 e1 00 1c 	stw     r31,28(r1)
    2e74:	7c 3f 0b 78 	mr      r31,r1
    2e78:	90 7f 00 08 	stw     r3,8(r31)
    2e7c:	90 9f 00 0c 	stw     r4,12(r31)
    2e80:	81 3f 00 08 	lwz     r9,8(r31)
    2e84:	81 5f 00 0c 	lwz     r10,12(r31)
    2e88:	91 49 00 24 	stw     r10,36(r9)
    2e8c:	39 20 00 00 	li      r9,0
    2e90:	7d 23 4b 78 	mr      r3,r9
    2e94:	39 7f 00 20 	addi    r11,r31,32
    2e98:	83 eb ff fc 	lwz     r31,-4(r11)
    2e9c:	7d 61 5b 78 	mr      r1,r11
    2ea0:	4e 80 00 20 	blr

00002ea4 <rt_list_remove>:
    2ea4:	94 21 ff e0 	stwu    r1,-32(r1)
    2ea8:	93 e1 00 1c 	stw     r31,28(r1)
    2eac:	7c 3f 0b 78 	mr      r31,r1
    2eb0:	90 7f 00 08 	stw     r3,8(r31)
    2eb4:	81 3f 00 08 	lwz     r9,8(r31)
    2eb8:	81 29 00 00 	lwz     r9,0(r9)
    2ebc:	81 5f 00 08 	lwz     r10,8(r31)
    2ec0:	81 4a 00 04 	lwz     r10,4(r10)
    2ec4:	91 49 00 04 	stw     r10,4(r9)
    2ec8:	81 3f 00 08 	lwz     r9,8(r31)
    2ecc:	81 29 00 04 	lwz     r9,4(r9)
    2ed0:	81 5f 00 08 	lwz     r10,8(r31)
    2ed4:	81 4a 00 00 	lwz     r10,0(r10)
    2ed8:	91 49 00 00 	stw     r10,0(r9)
    2edc:	81 3f 00 08 	lwz     r9,8(r31)
    2ee0:	81 5f 00 08 	lwz     r10,8(r31)
    2ee4:	91 49 00 04 	stw     r10,4(r9)
    2ee8:	81 3f 00 08 	lwz     r9,8(r31)
    2eec:	81 49 00 04 	lwz     r10,4(r9)
    2ef0:	81 3f 00 08 	lwz     r9,8(r31)
    2ef4:	91 49 00 00 	stw     r10,0(r9)
    2ef8:	39 7f 00 20 	addi    r11,r31,32
    2efc:	83 eb ff fc 	lwz     r31,-4(r11)
    2f00:	7d 61 5b 78 	mr      r1,r11
    2f04:	4e 80 00 20 	blr

00002f08 <rt_thread_idle_sethook>:
    2f08:	94 21 ff e0 	stwu    r1,-32(r1)
    2f0c:	93 e1 00 1c 	stw     r31,28(r1)
    2f10:	7c 3f 0b 78 	mr      r31,r1
    2f14:	90 7f 00 08 	stw     r3,8(r31)
    2f18:	3d 20 00 02 	lis     r9,2
    2f1c:	81 5f 00 08 	lwz     r10,8(r31)
    2f20:	91 49 c5 68 	stw     r10,-15000(r9)
    2f24:	39 7f 00 20 	addi    r11,r31,32
    2f28:	83 eb ff fc 	lwz     r31,-4(r11)
    2f2c:	7d 61 5b 78 	mr      r1,r11
    2f30:	4e 80 00 20 	blr

00002f34 <_has_defunct_thread>:
    2f34:	94 21 ff e0 	stwu    r1,-32(r1)
    2f38:	93 e1 00 1c 	stw     r31,28(r1)
    2f3c:	7c 3f 0b 78 	mr      r31,r1
    2f40:	3d 20 00 02 	lis     r9,2
    2f44:	39 29 bc 20 	addi    r9,r9,-17376
    2f48:	91 3f 00 08 	stw     r9,8(r31)
    2f4c:	81 3f 00 08 	lwz     r9,8(r31)
    2f50:	81 49 00 00 	lwz     r10,0(r9)
    2f54:	81 3f 00 08 	lwz     r9,8(r31)
    2f58:	7d 49 4a 78 	xor     r9,r10,r9
    2f5c:	2f 89 00 00 	cmpwi   cr7,r9,0
    2f60:	7d 20 00 26 	mfcr    r9
    2f64:	55 29 ff fe 	rlwinm  r9,r9,31,31,31
    2f68:	69 29 00 01 	xori    r9,r9,1
    2f6c:	55 29 06 3e 	clrlwi  r9,r9,24
    2f70:	7d 23 4b 78 	mr      r3,r9
    2f74:	39 7f 00 20 	addi    r11,r31,32
    2f78:	83 eb ff fc 	lwz     r31,-4(r11)
    2f7c:	7d 61 5b 78 	mr      r1,r11
    2f80:	4e 80 00 20 	blr

00002f84 <rt_thread_idle_excute>:
    2f84:	94 21 ff e0 	stwu    r1,-32(r1)
    2f88:	7c 08 02 a6 	mflr    r0
    2f8c:	90 01 00 24 	stw     r0,36(r1)
    2f90:	93 e1 00 1c 	stw     r31,28(r1)
    2f94:	7c 3f 0b 78 	mr      r31,r1
    2f98:	48 00 00 b0 	b       3048 <rt_thread_idle_excute+0xc4>
    2f9c:	48 00 90 fd 	bl      c098 <rt_hw_interrupt_disable>
    2fa0:	90 7f 00 08 	stw     r3,8(r31)
    2fa4:	4b ff ff 91 	bl      2f34 <_has_defunct_thread>
    2fa8:	7c 69 1b 78 	mr      r9,r3
    2fac:	2f 89 00 00 	cmpwi   cr7,r9,0
    2fb0:	41 9e 00 6c 	beq     cr7,301c <rt_thread_idle_excute+0x98>
    2fb4:	3d 20 00 02 	lis     r9,2
    2fb8:	39 29 bc 20 	addi    r9,r9,-17376
    2fbc:	81 29 00 00 	lwz     r9,0(r9)
    2fc0:	39 29 ff ec 	addi    r9,r9,-20
    2fc4:	91 3f 00 0c 	stw     r9,12(r31)
    2fc8:	81 3f 00 0c 	lwz     r9,12(r31)
    2fcc:	39 29 00 14 	addi    r9,r9,20
    2fd0:	7d 23 4b 78 	mr      r3,r9
    2fd4:	4b ff fe d1 	bl      2ea4 <rt_list_remove>
    2fd8:	81 3f 00 0c 	lwz     r9,12(r31)
    2fdc:	81 29 00 78 	lwz     r9,120(r9)
    2fe0:	2f 89 00 00 	cmpwi   cr7,r9,0
    2fe4:	41 9e 00 18 	beq     cr7,2ffc <rt_thread_idle_excute+0x78>
    2fe8:	81 3f 00 0c 	lwz     r9,12(r31)
    2fec:	81 29 00 78 	lwz     r9,120(r9)
    2ff0:	80 7f 00 0c 	lwz     r3,12(r31)
    2ff4:	7d 29 03 a6 	mtctr   r9
    2ff8:	4e 80 04 21 	bctrl
    2ffc:	80 7f 00 0c 	lwz     r3,12(r31)
    3000:	48 00 5a 79 	bl      8a78 <rt_object_is_systemobject>
    3004:	7c 69 1b 78 	mr      r9,r3
    3008:	2f 89 00 01 	cmpwi   cr7,r9,1
    300c:	40 9e 00 1c 	bne     cr7,3028 <rt_thread_idle_excute+0xa4>
    3010:	80 7f 00 08 	lwz     r3,8(r31)
    3014:	48 00 90 9d 	bl      c0b0 <rt_hw_interrupt_enable>
    3018:	48 00 00 40 	b       3058 <rt_thread_idle_excute+0xd4>
    301c:	80 7f 00 08 	lwz     r3,8(r31)
    3020:	48 00 90 91 	bl      c0b0 <rt_hw_interrupt_enable>
    3024:	48 00 00 34 	b       3058 <rt_thread_idle_excute+0xd4>
    3028:	80 7f 00 08 	lwz     r3,8(r31)
    302c:	48 00 90 85 	bl      c0b0 <rt_hw_interrupt_enable>
    3030:	81 3f 00 0c 	lwz     r9,12(r31)
    3034:	81 29 00 28 	lwz     r9,40(r9)
    3038:	7d 23 4b 78 	mr      r3,r9
    303c:	48 00 53 55 	bl      8390 <rt_free>
    3040:	80 7f 00 0c 	lwz     r3,12(r31)
    3044:	48 00 59 b1 	bl      89f4 <rt_object_delete>
    3048:	4b ff fe ed 	bl      2f34 <_has_defunct_thread>
    304c:	7c 69 1b 78 	mr      r9,r3
    3050:	2f 89 00 00 	cmpwi   cr7,r9,0
    3054:	40 9e ff 48 	bne     cr7,2f9c <rt_thread_idle_excute+0x18>
    3058:	39 7f 00 20 	addi    r11,r31,32
    305c:	80 0b 00 04 	lwz     r0,4(r11)
    3060:	7c 08 03 a6 	mtlr    r0
    3064:	83 eb ff fc 	lwz     r31,-4(r11)
    3068:	7d 61 5b 78 	mr      r1,r11
    306c:	4e 80 00 20 	blr

00003070 <rt_thread_idle_entry>:
    3070:	94 21 ff e0 	stwu    r1,-32(r1)
    3074:	7c 08 02 a6 	mflr    r0
    3078:	90 01 00 24 	stw     r0,36(r1)
    307c:	93 e1 00 1c 	stw     r31,28(r1)
    3080:	7c 3f 0b 78 	mr      r31,r1
    3084:	90 7f 00 08 	stw     r3,8(r31)
    3088:	3d 20 00 02 	lis     r9,2
    308c:	81 29 c5 68 	lwz     r9,-15000(r9)
    3090:	2f 89 00 00 	cmpwi   cr7,r9,0
    3094:	41 9e 00 14 	beq     cr7,30a8 <rt_thread_idle_entry+0x38>
    3098:	3d 20 00 02 	lis     r9,2
    309c:	81 29 c5 68 	lwz     r9,-15000(r9)
    30a0:	7d 29 03 a6 	mtctr   r9
    30a4:	4e 80 04 21 	bctrl
    30a8:	4b ff fe dd 	bl      2f84 <rt_thread_idle_excute>
    30ac:	4b ff ff dc 	b       3088 <rt_thread_idle_entry+0x18>

000030b0 <rt_thread_idle_init>:
    30b0:	94 21 ff f0 	stwu    r1,-16(r1)
    30b4:	7c 08 02 a6 	mflr    r0
    30b8:	90 01 00 14 	stw     r0,20(r1)
    30bc:	93 e1 00 0c 	stw     r31,12(r1)
    30c0:	7c 3f 0b 78 	mr      r31,r1
    30c4:	3d 20 00 02 	lis     r9,2
    30c8:	38 69 c0 e8 	addi    r3,r9,-16152
    30cc:	3d 20 00 02 	lis     r9,2
    30d0:	38 89 a1 18 	addi    r4,r9,-24296
    30d4:	3d 20 00 00 	lis     r9,0
    30d8:	38 a9 30 70 	addi    r5,r9,12400
    30dc:	38 c0 00 00 	li      r6,0
    30e0:	3d 20 00 02 	lis     r9,2
    30e4:	38 e9 c1 68 	addi    r7,r9,-16024
    30e8:	39 00 04 00 	li      r8,1024
    30ec:	39 20 00 1f 	li      r9,31
    30f0:	39 40 00 20 	li      r10,32
    30f4:	48 00 64 c1 	bl      95b4 <rt_thread_init>
    30f8:	3d 20 00 02 	lis     r9,2
    30fc:	38 69 c0 e8 	addi    r3,r9,-16152
    3100:	48 00 65 69 	bl      9668 <rt_thread_startup>
    3104:	39 7f 00 10 	addi    r11,r31,16
    3108:	80 0b 00 04 	lwz     r0,4(r11)
    310c:	7c 08 03 a6 	mtlr    r0
    3110:	83 eb ff fc 	lwz     r31,-4(r11)
    3114:	7d 61 5b 78 	mr      r1,r11
    3118:	4e 80 00 20 	blr

0000311c <rt_list_init>:
    311c:	94 21 ff e0 	stwu    r1,-32(r1)
    3120:	93 e1 00 1c 	stw     r31,28(r1)
    3124:	7c 3f 0b 78 	mr      r31,r1
    3128:	90 7f 00 08 	stw     r3,8(r31)
    312c:	81 3f 00 08 	lwz     r9,8(r31)
    3130:	81 5f 00 08 	lwz     r10,8(r31)
    3134:	91 49 00 04 	stw     r10,4(r9)
    3138:	81 3f 00 08 	lwz     r9,8(r31)
    313c:	81 49 00 04 	lwz     r10,4(r9)
    3140:	81 3f 00 08 	lwz     r9,8(r31)
    3144:	91 49 00 00 	stw     r10,0(r9)
    3148:	39 7f 00 20 	addi    r11,r31,32
    314c:	83 eb ff fc 	lwz     r31,-4(r11)
    3150:	7d 61 5b 78 	mr      r1,r11
    3154:	4e 80 00 20 	blr

00003158 <rt_list_insert_before>:
    3158:	94 21 ff e0 	stwu    r1,-32(r1)
    315c:	93 e1 00 1c 	stw     r31,28(r1)
    3160:	7c 3f 0b 78 	mr      r31,r1
    3164:	90 7f 00 08 	stw     r3,8(r31)
    3168:	90 9f 00 0c 	stw     r4,12(r31)
    316c:	81 3f 00 08 	lwz     r9,8(r31)
    3170:	81 29 00 04 	lwz     r9,4(r9)
    3174:	81 5f 00 0c 	lwz     r10,12(r31)
    3178:	91 49 00 00 	stw     r10,0(r9)
    317c:	81 3f 00 08 	lwz     r9,8(r31)
    3180:	81 49 00 04 	lwz     r10,4(r9)
    3184:	81 3f 00 0c 	lwz     r9,12(r31)
    3188:	91 49 00 04 	stw     r10,4(r9)
    318c:	81 3f 00 08 	lwz     r9,8(r31)
    3190:	81 5f 00 0c 	lwz     r10,12(r31)
    3194:	91 49 00 04 	stw     r10,4(r9)
    3198:	81 3f 00 0c 	lwz     r9,12(r31)
    319c:	81 5f 00 08 	lwz     r10,8(r31)
    31a0:	91 49 00 00 	stw     r10,0(r9)
    31a4:	39 7f 00 20 	addi    r11,r31,32
    31a8:	83 eb ff fc 	lwz     r31,-4(r11)
    31ac:	7d 61 5b 78 	mr      r1,r11
    31b0:	4e 80 00 20 	blr

000031b4 <rt_list_isempty>:
    31b4:	94 21 ff e0 	stwu    r1,-32(r1)
    31b8:	93 e1 00 1c 	stw     r31,28(r1)
    31bc:	7c 3f 0b 78 	mr      r31,r1
    31c0:	90 7f 00 08 	stw     r3,8(r31)
    31c4:	81 3f 00 08 	lwz     r9,8(r31)
    31c8:	81 49 00 00 	lwz     r10,0(r9)
    31cc:	81 3f 00 08 	lwz     r9,8(r31)
    31d0:	7f 8a 48 00 	cmpw    cr7,r10,r9
    31d4:	7d 20 00 26 	mfcr    r9
    31d8:	55 29 ff fe 	rlwinm  r9,r9,31,31,31
    31dc:	55 29 06 3e 	clrlwi  r9,r9,24
    31e0:	7d 23 4b 78 	mr      r3,r9
    31e4:	39 7f 00 20 	addi    r11,r31,32
    31e8:	83 eb ff fc 	lwz     r31,-4(r11)
    31ec:	7d 61 5b 78 	mr      r1,r11
    31f0:	4e 80 00 20 	blr

000031f4 <rt_ipc_object_init>:
    31f4:	94 21 ff e0 	stwu    r1,-32(r1)
    31f8:	7c 08 02 a6 	mflr    r0
    31fc:	90 01 00 24 	stw     r0,36(r1)
    3200:	93 e1 00 1c 	stw     r31,28(r1)
    3204:	7c 3f 0b 78 	mr      r31,r1
    3208:	90 7f 00 08 	stw     r3,8(r31)
    320c:	81 3f 00 08 	lwz     r9,8(r31)
    3210:	39 29 00 14 	addi    r9,r9,20
    3214:	7d 23 4b 78 	mr      r3,r9
    3218:	4b ff ff 05 	bl      311c <rt_list_init>
    321c:	39 20 00 00 	li      r9,0
    3220:	7d 23 4b 78 	mr      r3,r9
    3224:	39 7f 00 20 	addi    r11,r31,32
    3228:	80 0b 00 04 	lwz     r0,4(r11)
    322c:	7c 08 03 a6 	mtlr    r0
    3230:	83 eb ff fc 	lwz     r31,-4(r11)
    3234:	7d 61 5b 78 	mr      r1,r11
    3238:	4e 80 00 20 	blr

0000323c <rt_ipc_list_suspend>:
    323c:	94 21 ff d0 	stwu    r1,-48(r1)
    3240:	7c 08 02 a6 	mflr    r0
    3244:	90 01 00 34 	stw     r0,52(r1)
    3248:	93 e1 00 2c 	stw     r31,44(r1)
    324c:	7c 3f 0b 78 	mr      r31,r1
    3250:	90 7f 00 18 	stw     r3,24(r31)
    3254:	90 9f 00 1c 	stw     r4,28(r31)
    3258:	7c a9 2b 78 	mr      r9,r5
    325c:	99 3f 00 20 	stb     r9,32(r31)
    3260:	80 7f 00 1c 	lwz     r3,28(r31)
    3264:	48 00 69 89 	bl      9bec <rt_thread_suspend>
    3268:	89 3f 00 20 	lbz     r9,32(r31)
    326c:	55 29 06 3e 	clrlwi  r9,r9,24
    3270:	2f 89 00 00 	cmpwi   cr7,r9,0
    3274:	41 9e 00 10 	beq     cr7,3284 <rt_ipc_list_suspend+0x48>
    3278:	2f 89 00 01 	cmpwi   cr7,r9,1
    327c:	41 9e 00 20 	beq     cr7,329c <rt_ipc_list_suspend+0x60>
    3280:	48 00 00 c0 	b       3340 <rt_ipc_list_suspend+0x104>
    3284:	81 3f 00 1c 	lwz     r9,28(r31)
    3288:	39 29 00 14 	addi    r9,r9,20
    328c:	80 7f 00 18 	lwz     r3,24(r31)
    3290:	7d 24 4b 78 	mr      r4,r9
    3294:	4b ff fe c5 	bl      3158 <rt_list_insert_before>
    3298:	48 00 00 a8 	b       3340 <rt_ipc_list_suspend+0x104>
    329c:	81 3f 00 18 	lwz     r9,24(r31)
    32a0:	81 29 00 00 	lwz     r9,0(r9)
    32a4:	91 3f 00 08 	stw     r9,8(r31)
    32a8:	48 00 00 5c 	b       3304 <rt_ipc_list_suspend+0xc8>
    32ac:	81 3f 00 08 	lwz     r9,8(r31)
    32b0:	39 29 ff ec 	addi    r9,r9,-20
    32b4:	91 3f 00 0c 	stw     r9,12(r31)
    32b8:	81 3f 00 1c 	lwz     r9,28(r31)
    32bc:	89 29 00 35 	lbz     r9,53(r9)
    32c0:	55 2a 06 3e 	clrlwi  r10,r9,24
    32c4:	81 3f 00 0c 	lwz     r9,12(r31)
    32c8:	89 29 00 35 	lbz     r9,53(r9)
    32cc:	55 29 06 3e 	clrlwi  r9,r9,24
    32d0:	7f 8a 48 40 	cmplw   cr7,r10,r9
    32d4:	40 9c 00 24 	bge     cr7,32f8 <rt_ipc_list_suspend+0xbc>
    32d8:	81 3f 00 0c 	lwz     r9,12(r31)
    32dc:	39 49 00 14 	addi    r10,r9,20
    32e0:	81 3f 00 1c 	lwz     r9,28(r31)
    32e4:	39 29 00 14 	addi    r9,r9,20
    32e8:	7d 43 53 78 	mr      r3,r10
    32ec:	7d 24 4b 78 	mr      r4,r9
    32f0:	4b ff fe 69 	bl      3158 <rt_list_insert_before>
    32f4:	48 00 00 20 	b       3314 <rt_ipc_list_suspend+0xd8>
    32f8:	81 3f 00 08 	lwz     r9,8(r31)
    32fc:	81 29 00 00 	lwz     r9,0(r9)
    3300:	91 3f 00 08 	stw     r9,8(r31)
    3304:	81 5f 00 08 	lwz     r10,8(r31)
    3308:	81 3f 00 18 	lwz     r9,24(r31)
    330c:	7f 8a 48 00 	cmpw    cr7,r10,r9
    3310:	40 9e ff 9c 	bne     cr7,32ac <rt_ipc_list_suspend+0x70>
    3314:	81 5f 00 08 	lwz     r10,8(r31)
    3318:	81 3f 00 18 	lwz     r9,24(r31)
    331c:	7f 8a 48 00 	cmpw    cr7,r10,r9
    3320:	40 9e 00 1c 	bne     cr7,333c <rt_ipc_list_suspend+0x100>
    3324:	81 3f 00 1c 	lwz     r9,28(r31)
    3328:	39 29 00 14 	addi    r9,r9,20
    332c:	80 7f 00 18 	lwz     r3,24(r31)
    3330:	7d 24 4b 78 	mr      r4,r9
    3334:	4b ff fe 25 	bl      3158 <rt_list_insert_before>
    3338:	48 00 00 04 	b       333c <rt_ipc_list_suspend+0x100>
    333c:	60 00 00 00 	nop
    3340:	39 20 00 00 	li      r9,0
    3344:	7d 23 4b 78 	mr      r3,r9
    3348:	39 7f 00 30 	addi    r11,r31,48
    334c:	80 0b 00 04 	lwz     r0,4(r11)
    3350:	7c 08 03 a6 	mtlr    r0
    3354:	83 eb ff fc 	lwz     r31,-4(r11)
    3358:	7d 61 5b 78 	mr      r1,r11
    335c:	4e 80 00 20 	blr

00003360 <rt_ipc_list_resume>:
    3360:	94 21 ff d0 	stwu    r1,-48(r1)
    3364:	7c 08 02 a6 	mflr    r0
    3368:	90 01 00 34 	stw     r0,52(r1)
    336c:	93 e1 00 2c 	stw     r31,44(r1)
    3370:	7c 3f 0b 78 	mr      r31,r1
    3374:	90 7f 00 18 	stw     r3,24(r31)
    3378:	81 3f 00 18 	lwz     r9,24(r31)
    337c:	81 29 00 00 	lwz     r9,0(r9)
    3380:	39 29 ff ec 	addi    r9,r9,-20
    3384:	91 3f 00 08 	stw     r9,8(r31)
    3388:	80 7f 00 08 	lwz     r3,8(r31)
    338c:	48 00 68 f1 	bl      9c7c <rt_thread_resume>
    3390:	39 20 00 00 	li      r9,0
    3394:	7d 23 4b 78 	mr      r3,r9
    3398:	39 7f 00 30 	addi    r11,r31,48
    339c:	80 0b 00 04 	lwz     r0,4(r11)
    33a0:	7c 08 03 a6 	mtlr    r0
    33a4:	83 eb ff fc 	lwz     r31,-4(r11)
    33a8:	7d 61 5b 78 	mr      r1,r11
    33ac:	4e 80 00 20 	blr

000033b0 <rt_ipc_list_resume_all>:
    33b0:	94 21 ff d0 	stwu    r1,-48(r1)
    33b4:	7c 08 02 a6 	mflr    r0
    33b8:	90 01 00 34 	stw     r0,52(r1)
    33bc:	93 c1 00 28 	stw     r30,40(r1)
    33c0:	93 e1 00 2c 	stw     r31,44(r1)
    33c4:	7c 3f 0b 78 	mr      r31,r1
    33c8:	90 7f 00 18 	stw     r3,24(r31)
    33cc:	48 00 00 40 	b       340c <rt_ipc_list_resume_all+0x5c>
    33d0:	48 00 8c c9 	bl      c098 <rt_hw_interrupt_disable>
    33d4:	7c 69 1b 78 	mr      r9,r3
    33d8:	7d 3e 4b 78 	mr      r30,r9
    33dc:	81 3f 00 18 	lwz     r9,24(r31)
    33e0:	81 29 00 00 	lwz     r9,0(r9)
    33e4:	39 29 ff ec 	addi    r9,r9,-20
    33e8:	91 3f 00 08 	stw     r9,8(r31)
    33ec:	81 3f 00 08 	lwz     r9,8(r31)
    33f0:	39 40 ff ff 	li      r10,-1
    33f4:	91 49 00 30 	stw     r10,48(r9)
    33f8:	80 7f 00 08 	lwz     r3,8(r31)
    33fc:	48 00 68 81 	bl      9c7c <rt_thread_resume>
    3400:	7f c9 f3 78 	mr      r9,r30
    3404:	7d 23 4b 78 	mr      r3,r9
    3408:	48 00 8c a9 	bl      c0b0 <rt_hw_interrupt_enable>
    340c:	80 7f 00 18 	lwz     r3,24(r31)
    3410:	4b ff fd a5 	bl      31b4 <rt_list_isempty>
    3414:	7c 69 1b 78 	mr      r9,r3
    3418:	2f 89 00 00 	cmpwi   cr7,r9,0
    341c:	41 9e ff b4 	beq     cr7,33d0 <rt_ipc_list_resume_all+0x20>
    3420:	39 20 00 00 	li      r9,0
    3424:	7d 23 4b 78 	mr      r3,r9
    3428:	39 7f 00 30 	addi    r11,r31,48
    342c:	80 0b 00 04 	lwz     r0,4(r11)
    3430:	7c 08 03 a6 	mtlr    r0
    3434:	83 cb ff f8 	lwz     r30,-8(r11)
    3438:	83 eb ff fc 	lwz     r31,-4(r11)
    343c:	7d 61 5b 78 	mr      r1,r11
    3440:	4e 80 00 20 	blr

00003444 <rt_sem_init>:
    3444:	94 21 ff e0 	stwu    r1,-32(r1)
    3448:	7c 08 02 a6 	mflr    r0
    344c:	90 01 00 24 	stw     r0,36(r1)
    3450:	93 e1 00 1c 	stw     r31,28(r1)
    3454:	7c 3f 0b 78 	mr      r31,r1
    3458:	90 7f 00 08 	stw     r3,8(r31)
    345c:	90 9f 00 0c 	stw     r4,12(r31)
    3460:	90 bf 00 10 	stw     r5,16(r31)
    3464:	7c c9 33 78 	mr      r9,r6
    3468:	99 3f 00 14 	stb     r9,20(r31)
    346c:	81 3f 00 08 	lwz     r9,8(r31)
    3470:	7d 23 4b 78 	mr      r3,r9
    3474:	38 80 00 01 	li      r4,1
    3478:	80 bf 00 0c 	lwz     r5,12(r31)
    347c:	48 00 53 21 	bl      879c <rt_object_init>
    3480:	81 3f 00 08 	lwz     r9,8(r31)
    3484:	7d 23 4b 78 	mr      r3,r9
    3488:	4b ff fd 6d 	bl      31f4 <rt_ipc_object_init>
    348c:	81 3f 00 10 	lwz     r9,16(r31)
    3490:	55 2a 04 3e 	clrlwi  r10,r9,16
    3494:	81 3f 00 08 	lwz     r9,8(r31)
    3498:	b1 49 00 1c 	sth     r10,28(r9)
    349c:	81 3f 00 08 	lwz     r9,8(r31)
    34a0:	89 5f 00 14 	lbz     r10,20(r31)
    34a4:	99 49 00 09 	stb     r10,9(r9)
    34a8:	39 20 00 00 	li      r9,0
    34ac:	7d 23 4b 78 	mr      r3,r9
    34b0:	39 7f 00 20 	addi    r11,r31,32
    34b4:	80 0b 00 04 	lwz     r0,4(r11)
    34b8:	7c 08 03 a6 	mtlr    r0
    34bc:	83 eb ff fc 	lwz     r31,-4(r11)
    34c0:	7d 61 5b 78 	mr      r1,r11
    34c4:	4e 80 00 20 	blr

000034c8 <rt_sem_detach>:
    34c8:	94 21 ff e0 	stwu    r1,-32(r1)
    34cc:	7c 08 02 a6 	mflr    r0
    34d0:	90 01 00 24 	stw     r0,36(r1)
    34d4:	93 e1 00 1c 	stw     r31,28(r1)
    34d8:	7c 3f 0b 78 	mr      r31,r1
    34dc:	90 7f 00 08 	stw     r3,8(r31)
    34e0:	81 3f 00 08 	lwz     r9,8(r31)
    34e4:	39 29 00 14 	addi    r9,r9,20
    34e8:	7d 23 4b 78 	mr      r3,r9
    34ec:	4b ff fe c5 	bl      33b0 <rt_ipc_list_resume_all>
    34f0:	81 3f 00 08 	lwz     r9,8(r31)
    34f4:	7d 23 4b 78 	mr      r3,r9
    34f8:	48 00 53 7d 	bl      8874 <rt_object_detach>
    34fc:	39 20 00 00 	li      r9,0
    3500:	7d 23 4b 78 	mr      r3,r9
    3504:	39 7f 00 20 	addi    r11,r31,32
    3508:	80 0b 00 04 	lwz     r0,4(r11)
    350c:	7c 08 03 a6 	mtlr    r0
    3510:	83 eb ff fc 	lwz     r31,-4(r11)
    3514:	7d 61 5b 78 	mr      r1,r11
    3518:	4e 80 00 20 	blr

0000351c <rt_sem_create>:
    351c:	94 21 ff d0 	stwu    r1,-48(r1)
    3520:	7c 08 02 a6 	mflr    r0
    3524:	90 01 00 34 	stw     r0,52(r1)
    3528:	93 e1 00 2c 	stw     r31,44(r1)
    352c:	7c 3f 0b 78 	mr      r31,r1
    3530:	90 7f 00 18 	stw     r3,24(r31)
    3534:	90 9f 00 1c 	stw     r4,28(r31)
    3538:	7c a9 2b 78 	mr      r9,r5
    353c:	99 3f 00 20 	stb     r9,32(r31)
    3540:	38 60 00 01 	li      r3,1
    3544:	80 9f 00 18 	lwz     r4,24(r31)
    3548:	48 00 53 a9 	bl      88f0 <rt_object_allocate>
    354c:	90 7f 00 08 	stw     r3,8(r31)
    3550:	81 3f 00 08 	lwz     r9,8(r31)
    3554:	2f 89 00 00 	cmpwi   cr7,r9,0
    3558:	40 9e 00 0c 	bne     cr7,3564 <rt_sem_create+0x48>
    355c:	81 3f 00 08 	lwz     r9,8(r31)
    3560:	48 00 00 30 	b       3590 <rt_sem_create+0x74>
    3564:	81 3f 00 08 	lwz     r9,8(r31)
    3568:	7d 23 4b 78 	mr      r3,r9
    356c:	4b ff fc 89 	bl      31f4 <rt_ipc_object_init>
    3570:	81 3f 00 1c 	lwz     r9,28(r31)
    3574:	55 2a 04 3e 	clrlwi  r10,r9,16
    3578:	81 3f 00 08 	lwz     r9,8(r31)
    357c:	b1 49 00 1c 	sth     r10,28(r9)
    3580:	81 3f 00 08 	lwz     r9,8(r31)
    3584:	89 5f 00 20 	lbz     r10,32(r31)
    3588:	99 49 00 09 	stb     r10,9(r9)
    358c:	81 3f 00 08 	lwz     r9,8(r31)
    3590:	7d 23 4b 78 	mr      r3,r9
    3594:	39 7f 00 30 	addi    r11,r31,48
    3598:	80 0b 00 04 	lwz     r0,4(r11)
    359c:	7c 08 03 a6 	mtlr    r0
    35a0:	83 eb ff fc 	lwz     r31,-4(r11)
    35a4:	7d 61 5b 78 	mr      r1,r11
    35a8:	4e 80 00 20 	blr

000035ac <rt_sem_delete>:
    35ac:	94 21 ff e0 	stwu    r1,-32(r1)
    35b0:	7c 08 02 a6 	mflr    r0
    35b4:	90 01 00 24 	stw     r0,36(r1)
    35b8:	93 e1 00 1c 	stw     r31,28(r1)
    35bc:	7c 3f 0b 78 	mr      r31,r1
    35c0:	90 7f 00 08 	stw     r3,8(r31)
    35c4:	81 3f 00 08 	lwz     r9,8(r31)
    35c8:	39 29 00 14 	addi    r9,r9,20
    35cc:	7d 23 4b 78 	mr      r3,r9
    35d0:	4b ff fd e1 	bl      33b0 <rt_ipc_list_resume_all>
    35d4:	81 3f 00 08 	lwz     r9,8(r31)
    35d8:	7d 23 4b 78 	mr      r3,r9
    35dc:	48 00 54 19 	bl      89f4 <rt_object_delete>
    35e0:	39 20 00 00 	li      r9,0
    35e4:	7d 23 4b 78 	mr      r3,r9
    35e8:	39 7f 00 20 	addi    r11,r31,32
    35ec:	80 0b 00 04 	lwz     r0,4(r11)
    35f0:	7c 08 03 a6 	mtlr    r0
    35f4:	83 eb ff fc 	lwz     r31,-4(r11)
    35f8:	7d 61 5b 78 	mr      r1,r11
    35fc:	4e 80 00 20 	blr

00003600 <rt_sem_take>:
    3600:	94 21 ff d0 	stwu    r1,-48(r1)
    3604:	7c 08 02 a6 	mflr    r0
    3608:	90 01 00 34 	stw     r0,52(r1)
    360c:	93 c1 00 28 	stw     r30,40(r1)
    3610:	93 e1 00 2c 	stw     r31,44(r1)
    3614:	7c 3f 0b 78 	mr      r31,r1
    3618:	90 7f 00 18 	stw     r3,24(r31)
    361c:	90 9f 00 1c 	stw     r4,28(r31)
    3620:	3d 20 00 02 	lis     r9,2
    3624:	81 29 bc 10 	lwz     r9,-17392(r9)
    3628:	2f 89 00 00 	cmpwi   cr7,r9,0
    362c:	41 9e 00 1c 	beq     cr7,3648 <rt_sem_take+0x48>
    3630:	3d 20 00 02 	lis     r9,2
    3634:	81 29 bc 10 	lwz     r9,-17392(r9)
    3638:	81 5f 00 18 	lwz     r10,24(r31)
    363c:	7d 43 53 78 	mr      r3,r10
    3640:	7d 29 03 a6 	mtctr   r9
    3644:	4e 80 04 21 	bctrl
    3648:	48 00 8a 51 	bl      c098 <rt_hw_interrupt_disable>
    364c:	7c 7e 1b 78 	mr      r30,r3
    3650:	81 3f 00 18 	lwz     r9,24(r31)
    3654:	a1 29 00 1c 	lhz     r9,28(r9)
    3658:	55 29 04 3e 	clrlwi  r9,r9,16
    365c:	2f 89 00 00 	cmpwi   cr7,r9,0
    3660:	41 9e 00 2c 	beq     cr7,368c <rt_sem_take+0x8c>
    3664:	81 3f 00 18 	lwz     r9,24(r31)
    3668:	a1 29 00 1c 	lhz     r9,28(r9)
    366c:	55 29 04 3e 	clrlwi  r9,r9,16
    3670:	39 29 ff ff 	addi    r9,r9,-1
    3674:	55 2a 04 3e 	clrlwi  r10,r9,16
    3678:	81 3f 00 18 	lwz     r9,24(r31)
    367c:	b1 49 00 1c 	sth     r10,28(r9)
    3680:	7f c3 f3 78 	mr      r3,r30
    3684:	48 00 8a 2d 	bl      c0b0 <rt_hw_interrupt_enable>
    3688:	48 00 00 b8 	b       3740 <rt_sem_take+0x140>
    368c:	81 3f 00 1c 	lwz     r9,28(r31)
    3690:	2f 89 00 00 	cmpwi   cr7,r9,0
    3694:	40 9e 00 14 	bne     cr7,36a8 <rt_sem_take+0xa8>
    3698:	7f c3 f3 78 	mr      r3,r30
    369c:	48 00 8a 15 	bl      c0b0 <rt_hw_interrupt_enable>
    36a0:	39 20 ff fe 	li      r9,-2
    36a4:	48 00 00 c8 	b       376c <rt_sem_take+0x16c>
    36a8:	48 00 5f 99 	bl      9640 <rt_thread_self>
    36ac:	90 7f 00 08 	stw     r3,8(r31)
    36b0:	81 3f 00 08 	lwz     r9,8(r31)
    36b4:	39 40 00 00 	li      r10,0
    36b8:	91 49 00 30 	stw     r10,48(r9)
    36bc:	81 3f 00 18 	lwz     r9,24(r31)
    36c0:	39 49 00 14 	addi    r10,r9,20
    36c4:	81 3f 00 18 	lwz     r9,24(r31)
    36c8:	89 29 00 09 	lbz     r9,9(r9)
    36cc:	55 29 06 3e 	clrlwi  r9,r9,24
    36d0:	7d 43 53 78 	mr      r3,r10
    36d4:	80 9f 00 08 	lwz     r4,8(r31)
    36d8:	7d 25 4b 78 	mr      r5,r9
    36dc:	4b ff fb 61 	bl      323c <rt_ipc_list_suspend>
    36e0:	81 3f 00 1c 	lwz     r9,28(r31)
    36e4:	2f 89 00 00 	cmpwi   cr7,r9,0
    36e8:	40 9d 00 30 	ble     cr7,3718 <rt_sem_take+0x118>
    36ec:	81 3f 00 08 	lwz     r9,8(r31)
    36f0:	39 49 00 4c 	addi    r10,r9,76
    36f4:	39 3f 00 1c 	addi    r9,r31,28
    36f8:	7d 43 53 78 	mr      r3,r10
    36fc:	38 80 00 00 	li      r4,0
    3700:	7d 25 4b 78 	mr      r5,r9
    3704:	48 00 70 09 	bl      a70c <rt_timer_control>
    3708:	81 3f 00 08 	lwz     r9,8(r31)
    370c:	39 29 00 4c 	addi    r9,r9,76
    3710:	7d 23 4b 78 	mr      r3,r9
    3714:	48 00 6c 2d 	bl      a340 <rt_timer_start>
    3718:	7f c3 f3 78 	mr      r3,r30
    371c:	48 00 89 95 	bl      c0b0 <rt_hw_interrupt_enable>
    3720:	48 00 57 25 	bl      8e44 <rt_schedule>
    3724:	81 3f 00 08 	lwz     r9,8(r31)
    3728:	81 29 00 30 	lwz     r9,48(r9)
    372c:	2f 89 00 00 	cmpwi   cr7,r9,0
    3730:	41 9e 00 10 	beq     cr7,3740 <rt_sem_take+0x140>
    3734:	81 3f 00 08 	lwz     r9,8(r31)
    3738:	81 29 00 30 	lwz     r9,48(r9)
    373c:	48 00 00 30 	b       376c <rt_sem_take+0x16c>
    3740:	3d 20 00 02 	lis     r9,2
    3744:	81 29 bc 0c 	lwz     r9,-17396(r9)
    3748:	2f 89 00 00 	cmpwi   cr7,r9,0
    374c:	41 9e 00 1c 	beq     cr7,3768 <rt_sem_take+0x168>
    3750:	3d 20 00 02 	lis     r9,2
    3754:	81 29 bc 0c 	lwz     r9,-17396(r9)
    3758:	81 5f 00 18 	lwz     r10,24(r31)
    375c:	7d 43 53 78 	mr      r3,r10
    3760:	7d 29 03 a6 	mtctr   r9
    3764:	4e 80 04 21 	bctrl
    3768:	39 20 00 00 	li      r9,0
    376c:	7d 23 4b 78 	mr      r3,r9
    3770:	39 7f 00 30 	addi    r11,r31,48
    3774:	80 0b 00 04 	lwz     r0,4(r11)
    3778:	7c 08 03 a6 	mtlr    r0
    377c:	83 cb ff f8 	lwz     r30,-8(r11)
    3780:	83 eb ff fc 	lwz     r31,-4(r11)
    3784:	7d 61 5b 78 	mr      r1,r11
    3788:	4e 80 00 20 	blr

0000378c <rt_sem_trytake>:
    378c:	94 21 ff e0 	stwu    r1,-32(r1)
    3790:	7c 08 02 a6 	mflr    r0
    3794:	90 01 00 24 	stw     r0,36(r1)
    3798:	93 e1 00 1c 	stw     r31,28(r1)
    379c:	7c 3f 0b 78 	mr      r31,r1
    37a0:	90 7f 00 08 	stw     r3,8(r31)
    37a4:	80 7f 00 08 	lwz     r3,8(r31)
    37a8:	38 80 00 00 	li      r4,0
    37ac:	4b ff fe 55 	bl      3600 <rt_sem_take>
    37b0:	7c 69 1b 78 	mr      r9,r3
    37b4:	7d 23 4b 78 	mr      r3,r9
    37b8:	39 7f 00 20 	addi    r11,r31,32
    37bc:	80 0b 00 04 	lwz     r0,4(r11)
    37c0:	7c 08 03 a6 	mtlr    r0
    37c4:	83 eb ff fc 	lwz     r31,-4(r11)
    37c8:	7d 61 5b 78 	mr      r1,r11
    37cc:	4e 80 00 20 	blr

000037d0 <rt_sem_release>:
    37d0:	94 21 ff e0 	stwu    r1,-32(r1)
    37d4:	7c 08 02 a6 	mflr    r0
    37d8:	90 01 00 24 	stw     r0,36(r1)
    37dc:	93 a1 00 14 	stw     r29,20(r1)
    37e0:	93 c1 00 18 	stw     r30,24(r1)
    37e4:	93 e1 00 1c 	stw     r31,28(r1)
    37e8:	7c 3f 0b 78 	mr      r31,r1
    37ec:	90 7f 00 08 	stw     r3,8(r31)
    37f0:	3d 20 00 02 	lis     r9,2
    37f4:	81 29 bc 08 	lwz     r9,-17400(r9)
    37f8:	2f 89 00 00 	cmpwi   cr7,r9,0
    37fc:	41 9e 00 1c 	beq     cr7,3818 <rt_sem_release+0x48>
    3800:	3d 20 00 02 	lis     r9,2
    3804:	81 29 bc 08 	lwz     r9,-17400(r9)
    3808:	81 5f 00 08 	lwz     r10,8(r31)
    380c:	7d 43 53 78 	mr      r3,r10
    3810:	7d 29 03 a6 	mtctr   r9
    3814:	4e 80 04 21 	bctrl
    3818:	3b c0 00 00 	li      r30,0
    381c:	48 00 88 7d 	bl      c098 <rt_hw_interrupt_disable>
    3820:	7c 7d 1b 78 	mr      r29,r3
    3824:	81 3f 00 08 	lwz     r9,8(r31)
    3828:	39 29 00 14 	addi    r9,r9,20
    382c:	7d 23 4b 78 	mr      r3,r9
    3830:	4b ff f9 85 	bl      31b4 <rt_list_isempty>
    3834:	7c 69 1b 78 	mr      r9,r3
    3838:	2f 89 00 00 	cmpwi   cr7,r9,0
    383c:	40 9e 00 1c 	bne     cr7,3858 <rt_sem_release+0x88>
    3840:	81 3f 00 08 	lwz     r9,8(r31)
    3844:	39 29 00 14 	addi    r9,r9,20
    3848:	7d 23 4b 78 	mr      r3,r9
    384c:	4b ff fb 15 	bl      3360 <rt_ipc_list_resume>
    3850:	3b c0 00 01 	li      r30,1
    3854:	48 00 00 20 	b       3874 <rt_sem_release+0xa4>
    3858:	81 3f 00 08 	lwz     r9,8(r31)
    385c:	a1 29 00 1c 	lhz     r9,28(r9)
    3860:	55 29 04 3e 	clrlwi  r9,r9,16
    3864:	39 29 00 01 	addi    r9,r9,1
    3868:	55 2a 04 3e 	clrlwi  r10,r9,16
    386c:	81 3f 00 08 	lwz     r9,8(r31)
    3870:	b1 49 00 1c 	sth     r10,28(r9)
    3874:	7f a3 eb 78 	mr      r3,r29
    3878:	48 00 88 39 	bl      c0b0 <rt_hw_interrupt_enable>
    387c:	2f 9e 00 01 	cmpwi   cr7,r30,1
    3880:	40 9e 00 08 	bne     cr7,3888 <rt_sem_release+0xb8>
    3884:	48 00 55 c1 	bl      8e44 <rt_schedule>
    3888:	39 20 00 00 	li      r9,0
    388c:	7d 23 4b 78 	mr      r3,r9
    3890:	39 7f 00 20 	addi    r11,r31,32
    3894:	80 0b 00 04 	lwz     r0,4(r11)
    3898:	7c 08 03 a6 	mtlr    r0
    389c:	83 ab ff f4 	lwz     r29,-12(r11)
    38a0:	83 cb ff f8 	lwz     r30,-8(r11)
    38a4:	83 eb ff fc 	lwz     r31,-4(r11)
    38a8:	7d 61 5b 78 	mr      r1,r11
    38ac:	4e 80 00 20 	blr

000038b0 <rt_sem_control>:
    38b0:	94 21 ff d0 	stwu    r1,-48(r1)
    38b4:	7c 08 02 a6 	mflr    r0
    38b8:	90 01 00 34 	stw     r0,52(r1)
    38bc:	93 e1 00 2c 	stw     r31,44(r1)
    38c0:	7c 3f 0b 78 	mr      r31,r1
    38c4:	90 7f 00 18 	stw     r3,24(r31)
    38c8:	7c 89 23 78 	mr      r9,r4
    38cc:	90 bf 00 20 	stw     r5,32(r31)
    38d0:	99 3f 00 1c 	stb     r9,28(r31)
    38d4:	89 3f 00 1c 	lbz     r9,28(r31)
    38d8:	55 29 06 3e 	clrlwi  r9,r9,24
    38dc:	2f 89 00 01 	cmpwi   cr7,r9,1
    38e0:	40 9e 00 50 	bne     cr7,3930 <rt_sem_control+0x80>
    38e4:	81 3f 00 20 	lwz     r9,32(r31)
    38e8:	91 3f 00 08 	stw     r9,8(r31)
    38ec:	48 00 87 ad 	bl      c098 <rt_hw_interrupt_disable>
    38f0:	7c 69 1b 78 	mr      r9,r3
    38f4:	91 3f 00 0c 	stw     r9,12(r31)
    38f8:	81 3f 00 18 	lwz     r9,24(r31)
    38fc:	39 29 00 14 	addi    r9,r9,20
    3900:	7d 23 4b 78 	mr      r3,r9
    3904:	4b ff fa ad 	bl      33b0 <rt_ipc_list_resume_all>
    3908:	81 3f 00 08 	lwz     r9,8(r31)
    390c:	55 2a 04 3e 	clrlwi  r10,r9,16
    3910:	81 3f 00 18 	lwz     r9,24(r31)
    3914:	b1 49 00 1c 	sth     r10,28(r9)
    3918:	81 3f 00 0c 	lwz     r9,12(r31)
    391c:	7d 23 4b 78 	mr      r3,r9
    3920:	48 00 87 91 	bl      c0b0 <rt_hw_interrupt_enable>
    3924:	48 00 55 21 	bl      8e44 <rt_schedule>
    3928:	39 20 00 00 	li      r9,0
    392c:	48 00 00 08 	b       3934 <rt_sem_control+0x84>
    3930:	39 20 ff ff 	li      r9,-1
    3934:	7d 23 4b 78 	mr      r3,r9
    3938:	39 7f 00 30 	addi    r11,r31,48
    393c:	80 0b 00 04 	lwz     r0,4(r11)
    3940:	7c 08 03 a6 	mtlr    r0
    3944:	83 eb ff fc 	lwz     r31,-4(r11)
    3948:	7d 61 5b 78 	mr      r1,r11
    394c:	4e 80 00 20 	blr

00003950 <rt_mutex_init>:
    3950:	94 21 ff e0 	stwu    r1,-32(r1)
    3954:	7c 08 02 a6 	mflr    r0
    3958:	90 01 00 24 	stw     r0,36(r1)
    395c:	93 e1 00 1c 	stw     r31,28(r1)
    3960:	7c 3f 0b 78 	mr      r31,r1
    3964:	90 7f 00 08 	stw     r3,8(r31)
    3968:	90 9f 00 0c 	stw     r4,12(r31)
    396c:	7c a9 2b 78 	mr      r9,r5
    3970:	99 3f 00 10 	stb     r9,16(r31)
    3974:	81 3f 00 08 	lwz     r9,8(r31)
    3978:	7d 23 4b 78 	mr      r3,r9
    397c:	38 80 00 02 	li      r4,2
    3980:	80 bf 00 0c 	lwz     r5,12(r31)
    3984:	48 00 4e 19 	bl      879c <rt_object_init>
    3988:	81 3f 00 08 	lwz     r9,8(r31)
    398c:	7d 23 4b 78 	mr      r3,r9
    3990:	4b ff f8 65 	bl      31f4 <rt_ipc_object_init>
    3994:	81 3f 00 08 	lwz     r9,8(r31)
    3998:	39 40 00 01 	li      r10,1
    399c:	b1 49 00 1c 	sth     r10,28(r9)
    39a0:	81 3f 00 08 	lwz     r9,8(r31)
    39a4:	39 40 00 00 	li      r10,0
    39a8:	91 49 00 20 	stw     r10,32(r9)
    39ac:	81 3f 00 08 	lwz     r9,8(r31)
    39b0:	39 40 ff ff 	li      r10,-1
    39b4:	99 49 00 1e 	stb     r10,30(r9)
    39b8:	81 3f 00 08 	lwz     r9,8(r31)
    39bc:	39 40 00 00 	li      r10,0
    39c0:	99 49 00 1f 	stb     r10,31(r9)
    39c4:	81 3f 00 08 	lwz     r9,8(r31)
    39c8:	89 5f 00 10 	lbz     r10,16(r31)
    39cc:	99 49 00 09 	stb     r10,9(r9)
    39d0:	39 20 00 00 	li      r9,0
    39d4:	7d 23 4b 78 	mr      r3,r9
    39d8:	39 7f 00 20 	addi    r11,r31,32
    39dc:	80 0b 00 04 	lwz     r0,4(r11)
    39e0:	7c 08 03 a6 	mtlr    r0
    39e4:	83 eb ff fc 	lwz     r31,-4(r11)
    39e8:	7d 61 5b 78 	mr      r1,r11
    39ec:	4e 80 00 20 	blr

000039f0 <rt_mutex_detach>:
    39f0:	94 21 ff e0 	stwu    r1,-32(r1)
    39f4:	7c 08 02 a6 	mflr    r0
    39f8:	90 01 00 24 	stw     r0,36(r1)
    39fc:	93 e1 00 1c 	stw     r31,28(r1)
    3a00:	7c 3f 0b 78 	mr      r31,r1
    3a04:	90 7f 00 08 	stw     r3,8(r31)
    3a08:	81 3f 00 08 	lwz     r9,8(r31)
    3a0c:	39 29 00 14 	addi    r9,r9,20
    3a10:	7d 23 4b 78 	mr      r3,r9
    3a14:	4b ff f9 9d 	bl      33b0 <rt_ipc_list_resume_all>
    3a18:	81 3f 00 08 	lwz     r9,8(r31)
    3a1c:	7d 23 4b 78 	mr      r3,r9
    3a20:	48 00 4e 55 	bl      8874 <rt_object_detach>
    3a24:	39 20 00 00 	li      r9,0
    3a28:	7d 23 4b 78 	mr      r3,r9
    3a2c:	39 7f 00 20 	addi    r11,r31,32
    3a30:	80 0b 00 04 	lwz     r0,4(r11)
    3a34:	7c 08 03 a6 	mtlr    r0
    3a38:	83 eb ff fc 	lwz     r31,-4(r11)
    3a3c:	7d 61 5b 78 	mr      r1,r11
    3a40:	4e 80 00 20 	blr

00003a44 <rt_mutex_create>:
    3a44:	94 21 ff d0 	stwu    r1,-48(r1)
    3a48:	7c 08 02 a6 	mflr    r0
    3a4c:	90 01 00 34 	stw     r0,52(r1)
    3a50:	93 e1 00 2c 	stw     r31,44(r1)
    3a54:	7c 3f 0b 78 	mr      r31,r1
    3a58:	90 7f 00 18 	stw     r3,24(r31)
    3a5c:	7c 89 23 78 	mr      r9,r4
    3a60:	99 3f 00 1c 	stb     r9,28(r31)
    3a64:	38 60 00 02 	li      r3,2
    3a68:	80 9f 00 18 	lwz     r4,24(r31)
    3a6c:	48 00 4e 85 	bl      88f0 <rt_object_allocate>
    3a70:	90 7f 00 08 	stw     r3,8(r31)
    3a74:	81 3f 00 08 	lwz     r9,8(r31)
    3a78:	2f 89 00 00 	cmpwi   cr7,r9,0
    3a7c:	40 9e 00 0c 	bne     cr7,3a88 <rt_mutex_create+0x44>
    3a80:	81 3f 00 08 	lwz     r9,8(r31)
    3a84:	48 00 00 50 	b       3ad4 <rt_mutex_create+0x90>
    3a88:	81 3f 00 08 	lwz     r9,8(r31)
    3a8c:	7d 23 4b 78 	mr      r3,r9
    3a90:	4b ff f7 65 	bl      31f4 <rt_ipc_object_init>
    3a94:	81 3f 00 08 	lwz     r9,8(r31)
    3a98:	39 40 00 01 	li      r10,1
    3a9c:	b1 49 00 1c 	sth     r10,28(r9)
    3aa0:	81 3f 00 08 	lwz     r9,8(r31)
    3aa4:	39 40 00 00 	li      r10,0
    3aa8:	91 49 00 20 	stw     r10,32(r9)
    3aac:	81 3f 00 08 	lwz     r9,8(r31)
    3ab0:	39 40 ff ff 	li      r10,-1
    3ab4:	99 49 00 1e 	stb     r10,30(r9)
    3ab8:	81 3f 00 08 	lwz     r9,8(r31)
    3abc:	39 40 00 00 	li      r10,0
    3ac0:	99 49 00 1f 	stb     r10,31(r9)
    3ac4:	81 3f 00 08 	lwz     r9,8(r31)
    3ac8:	89 5f 00 1c 	lbz     r10,28(r31)
    3acc:	99 49 00 09 	stb     r10,9(r9)
    3ad0:	81 3f 00 08 	lwz     r9,8(r31)
    3ad4:	7d 23 4b 78 	mr      r3,r9
    3ad8:	39 7f 00 30 	addi    r11,r31,48
    3adc:	80 0b 00 04 	lwz     r0,4(r11)
    3ae0:	7c 08 03 a6 	mtlr    r0
    3ae4:	83 eb ff fc 	lwz     r31,-4(r11)
    3ae8:	7d 61 5b 78 	mr      r1,r11
    3aec:	4e 80 00 20 	blr

00003af0 <rt_mutex_delete>:
    3af0:	94 21 ff e0 	stwu    r1,-32(r1)
    3af4:	7c 08 02 a6 	mflr    r0
    3af8:	90 01 00 24 	stw     r0,36(r1)
    3afc:	93 e1 00 1c 	stw     r31,28(r1)
    3b00:	7c 3f 0b 78 	mr      r31,r1
    3b04:	90 7f 00 08 	stw     r3,8(r31)
    3b08:	81 3f 00 08 	lwz     r9,8(r31)
    3b0c:	39 29 00 14 	addi    r9,r9,20
    3b10:	7d 23 4b 78 	mr      r3,r9
    3b14:	4b ff f8 9d 	bl      33b0 <rt_ipc_list_resume_all>
    3b18:	81 3f 00 08 	lwz     r9,8(r31)
    3b1c:	7d 23 4b 78 	mr      r3,r9
    3b20:	48 00 4e d5 	bl      89f4 <rt_object_delete>
    3b24:	39 20 00 00 	li      r9,0
    3b28:	7d 23 4b 78 	mr      r3,r9
    3b2c:	39 7f 00 20 	addi    r11,r31,32
    3b30:	80 0b 00 04 	lwz     r0,4(r11)
    3b34:	7c 08 03 a6 	mtlr    r0
    3b38:	83 eb ff fc 	lwz     r31,-4(r11)
    3b3c:	7d 61 5b 78 	mr      r1,r11
    3b40:	4e 80 00 20 	blr

00003b44 <rt_mutex_take>:
    3b44:	94 21 ff d0 	stwu    r1,-48(r1)
    3b48:	7c 08 02 a6 	mflr    r0
    3b4c:	90 01 00 34 	stw     r0,52(r1)
    3b50:	93 c1 00 28 	stw     r30,40(r1)
    3b54:	93 e1 00 2c 	stw     r31,44(r1)
    3b58:	7c 3f 0b 78 	mr      r31,r1
    3b5c:	90 7f 00 18 	stw     r3,24(r31)
    3b60:	90 9f 00 1c 	stw     r4,28(r31)
    3b64:	48 00 85 35 	bl      c098 <rt_hw_interrupt_disable>
    3b68:	7c 7e 1b 78 	mr      r30,r3
    3b6c:	48 00 5a d5 	bl      9640 <rt_thread_self>
    3b70:	90 7f 00 08 	stw     r3,8(r31)
    3b74:	3d 20 00 02 	lis     r9,2
    3b78:	81 29 bc 10 	lwz     r9,-17392(r9)
    3b7c:	2f 89 00 00 	cmpwi   cr7,r9,0
    3b80:	41 9e 00 1c 	beq     cr7,3b9c <rt_mutex_take+0x58>
    3b84:	3d 20 00 02 	lis     r9,2
    3b88:	81 29 bc 10 	lwz     r9,-17392(r9)
    3b8c:	81 5f 00 18 	lwz     r10,24(r31)
    3b90:	7d 43 53 78 	mr      r3,r10
    3b94:	7d 29 03 a6 	mtctr   r9
    3b98:	4e 80 04 21 	bctrl
    3b9c:	81 3f 00 08 	lwz     r9,8(r31)
    3ba0:	39 40 00 00 	li      r10,0
    3ba4:	91 49 00 30 	stw     r10,48(r9)
    3ba8:	81 3f 00 18 	lwz     r9,24(r31)
    3bac:	81 49 00 20 	lwz     r10,32(r9)
    3bb0:	81 3f 00 08 	lwz     r9,8(r31)
    3bb4:	7f 8a 48 00 	cmpw    cr7,r10,r9
    3bb8:	40 9e 00 24 	bne     cr7,3bdc <rt_mutex_take+0x98>
    3bbc:	81 3f 00 18 	lwz     r9,24(r31)
    3bc0:	89 29 00 1f 	lbz     r9,31(r9)
    3bc4:	55 29 06 3e 	clrlwi  r9,r9,24
    3bc8:	39 29 00 01 	addi    r9,r9,1
    3bcc:	55 2a 06 3e 	clrlwi  r10,r9,24
    3bd0:	81 3f 00 18 	lwz     r9,24(r31)
    3bd4:	99 49 00 1f 	stb     r10,31(r9)
    3bd8:	48 00 01 6c 	b       3d44 <rt_mutex_take+0x200>
    3bdc:	81 3f 00 18 	lwz     r9,24(r31)
    3be0:	a1 29 00 1c 	lhz     r9,28(r9)
    3be4:	55 29 04 3e 	clrlwi  r9,r9,16
    3be8:	2f 89 00 00 	cmpwi   cr7,r9,0
    3bec:	41 9e 00 60 	beq     cr7,3c4c <rt_mutex_take+0x108>
    3bf0:	81 3f 00 18 	lwz     r9,24(r31)
    3bf4:	a1 29 00 1c 	lhz     r9,28(r9)
    3bf8:	55 29 04 3e 	clrlwi  r9,r9,16
    3bfc:	39 29 ff ff 	addi    r9,r9,-1
    3c00:	55 2a 04 3e 	clrlwi  r10,r9,16
    3c04:	81 3f 00 18 	lwz     r9,24(r31)
    3c08:	b1 49 00 1c 	sth     r10,28(r9)
    3c0c:	81 3f 00 18 	lwz     r9,24(r31)
    3c10:	81 5f 00 08 	lwz     r10,8(r31)
    3c14:	91 49 00 20 	stw     r10,32(r9)
    3c18:	81 3f 00 08 	lwz     r9,8(r31)
    3c1c:	89 29 00 35 	lbz     r9,53(r9)
    3c20:	55 2a 06 3e 	clrlwi  r10,r9,24
    3c24:	81 3f 00 18 	lwz     r9,24(r31)
    3c28:	99 49 00 1e 	stb     r10,30(r9)
    3c2c:	81 3f 00 18 	lwz     r9,24(r31)
    3c30:	89 29 00 1f 	lbz     r9,31(r9)
    3c34:	55 29 06 3e 	clrlwi  r9,r9,24
    3c38:	39 29 00 01 	addi    r9,r9,1
    3c3c:	55 2a 06 3e 	clrlwi  r10,r9,24
    3c40:	81 3f 00 18 	lwz     r9,24(r31)
    3c44:	99 49 00 1f 	stb     r10,31(r9)
    3c48:	48 00 00 fc 	b       3d44 <rt_mutex_take+0x200>
    3c4c:	81 3f 00 1c 	lwz     r9,28(r31)
    3c50:	2f 89 00 00 	cmpwi   cr7,r9,0
    3c54:	40 9e 00 20 	bne     cr7,3c74 <rt_mutex_take+0x130>
    3c58:	81 3f 00 08 	lwz     r9,8(r31)
    3c5c:	39 40 ff fe 	li      r10,-2
    3c60:	91 49 00 30 	stw     r10,48(r9)
    3c64:	7f c3 f3 78 	mr      r3,r30
    3c68:	48 00 84 49 	bl      c0b0 <rt_hw_interrupt_enable>
    3c6c:	39 20 ff fe 	li      r9,-2
    3c70:	48 00 01 08 	b       3d78 <rt_mutex_take+0x234>
    3c74:	81 3f 00 08 	lwz     r9,8(r31)
    3c78:	89 29 00 35 	lbz     r9,53(r9)
    3c7c:	55 2a 06 3e 	clrlwi  r10,r9,24
    3c80:	81 3f 00 18 	lwz     r9,24(r31)
    3c84:	81 29 00 20 	lwz     r9,32(r9)
    3c88:	89 29 00 35 	lbz     r9,53(r9)
    3c8c:	55 29 06 3e 	clrlwi  r9,r9,24
    3c90:	7f 8a 48 40 	cmplw   cr7,r10,r9
    3c94:	40 9c 00 24 	bge     cr7,3cb8 <rt_mutex_take+0x174>
    3c98:	81 3f 00 18 	lwz     r9,24(r31)
    3c9c:	81 49 00 20 	lwz     r10,32(r9)
    3ca0:	81 3f 00 08 	lwz     r9,8(r31)
    3ca4:	39 29 00 35 	addi    r9,r9,53
    3ca8:	7d 43 53 78 	mr      r3,r10
    3cac:	38 80 00 02 	li      r4,2
    3cb0:	7d 25 4b 78 	mr      r5,r9
    3cb4:	48 00 5d fd 	bl      9ab0 <rt_thread_control>
    3cb8:	81 3f 00 18 	lwz     r9,24(r31)
    3cbc:	39 49 00 14 	addi    r10,r9,20
    3cc0:	81 3f 00 18 	lwz     r9,24(r31)
    3cc4:	89 29 00 09 	lbz     r9,9(r9)
    3cc8:	55 29 06 3e 	clrlwi  r9,r9,24
    3ccc:	7d 43 53 78 	mr      r3,r10
    3cd0:	80 9f 00 08 	lwz     r4,8(r31)
    3cd4:	7d 25 4b 78 	mr      r5,r9
    3cd8:	4b ff f5 65 	bl      323c <rt_ipc_list_suspend>
    3cdc:	81 3f 00 1c 	lwz     r9,28(r31)
    3ce0:	2f 89 00 00 	cmpwi   cr7,r9,0
    3ce4:	40 9d 00 30 	ble     cr7,3d14 <rt_mutex_take+0x1d0>
    3ce8:	81 3f 00 08 	lwz     r9,8(r31)
    3cec:	39 49 00 4c 	addi    r10,r9,76
    3cf0:	39 3f 00 1c 	addi    r9,r31,28
    3cf4:	7d 43 53 78 	mr      r3,r10
    3cf8:	38 80 00 00 	li      r4,0
    3cfc:	7d 25 4b 78 	mr      r5,r9
    3d00:	48 00 6a 0d 	bl      a70c <rt_timer_control>
    3d04:	81 3f 00 08 	lwz     r9,8(r31)
    3d08:	39 29 00 4c 	addi    r9,r9,76
    3d0c:	7d 23 4b 78 	mr      r3,r9
    3d10:	48 00 66 31 	bl      a340 <rt_timer_start>
    3d14:	7f c3 f3 78 	mr      r3,r30
    3d18:	48 00 83 99 	bl      c0b0 <rt_hw_interrupt_enable>
    3d1c:	48 00 51 29 	bl      8e44 <rt_schedule>
    3d20:	81 3f 00 08 	lwz     r9,8(r31)
    3d24:	81 29 00 30 	lwz     r9,48(r9)
    3d28:	2f 89 00 00 	cmpwi   cr7,r9,0
    3d2c:	41 9e 00 10 	beq     cr7,3d3c <rt_mutex_take+0x1f8>
    3d30:	81 3f 00 08 	lwz     r9,8(r31)
    3d34:	81 29 00 30 	lwz     r9,48(r9)
    3d38:	48 00 00 40 	b       3d78 <rt_mutex_take+0x234>
    3d3c:	48 00 83 5d 	bl      c098 <rt_hw_interrupt_disable>
    3d40:	7c 7e 1b 78 	mr      r30,r3
    3d44:	7f c3 f3 78 	mr      r3,r30
    3d48:	48 00 83 69 	bl      c0b0 <rt_hw_interrupt_enable>
    3d4c:	3d 20 00 02 	lis     r9,2
    3d50:	81 29 bc 0c 	lwz     r9,-17396(r9)
    3d54:	2f 89 00 00 	cmpwi   cr7,r9,0
    3d58:	41 9e 00 1c 	beq     cr7,3d74 <rt_mutex_take+0x230>
    3d5c:	3d 20 00 02 	lis     r9,2
    3d60:	81 29 bc 0c 	lwz     r9,-17396(r9)
    3d64:	81 5f 00 18 	lwz     r10,24(r31)
    3d68:	7d 43 53 78 	mr      r3,r10
    3d6c:	7d 29 03 a6 	mtctr   r9
    3d70:	4e 80 04 21 	bctrl
    3d74:	39 20 00 00 	li      r9,0
    3d78:	7d 23 4b 78 	mr      r3,r9
    3d7c:	39 7f 00 30 	addi    r11,r31,48
    3d80:	80 0b 00 04 	lwz     r0,4(r11)
    3d84:	7c 08 03 a6 	mtlr    r0
    3d88:	83 cb ff f8 	lwz     r30,-8(r11)
    3d8c:	83 eb ff fc 	lwz     r31,-4(r11)
    3d90:	7d 61 5b 78 	mr      r1,r11
    3d94:	4e 80 00 20 	blr

00003d98 <rt_mutex_release>:
    3d98:	94 21 ff d0 	stwu    r1,-48(r1)
    3d9c:	7c 08 02 a6 	mflr    r0
    3da0:	90 01 00 34 	stw     r0,52(r1)
    3da4:	93 c1 00 28 	stw     r30,40(r1)
    3da8:	93 e1 00 2c 	stw     r31,44(r1)
    3dac:	7c 3f 0b 78 	mr      r31,r1
    3db0:	90 7f 00 18 	stw     r3,24(r31)
    3db4:	39 20 00 00 	li      r9,0
    3db8:	91 3f 00 08 	stw     r9,8(r31)
    3dbc:	48 00 58 85 	bl      9640 <rt_thread_self>
    3dc0:	90 7f 00 0c 	stw     r3,12(r31)
    3dc4:	48 00 82 d5 	bl      c098 <rt_hw_interrupt_disable>
    3dc8:	7c 7e 1b 78 	mr      r30,r3
    3dcc:	3d 20 00 02 	lis     r9,2
    3dd0:	81 29 bc 08 	lwz     r9,-17400(r9)
    3dd4:	2f 89 00 00 	cmpwi   cr7,r9,0
    3dd8:	41 9e 00 1c 	beq     cr7,3df4 <rt_mutex_release+0x5c>
    3ddc:	3d 20 00 02 	lis     r9,2
    3de0:	81 29 bc 08 	lwz     r9,-17400(r9)
    3de4:	81 5f 00 18 	lwz     r10,24(r31)
    3de8:	7d 43 53 78 	mr      r3,r10
    3dec:	7d 29 03 a6 	mtctr   r9
    3df0:	4e 80 04 21 	bctrl
    3df4:	81 3f 00 18 	lwz     r9,24(r31)
    3df8:	81 49 00 20 	lwz     r10,32(r9)
    3dfc:	81 3f 00 0c 	lwz     r9,12(r31)
    3e00:	7f 8a 48 00 	cmpw    cr7,r10,r9
    3e04:	41 9e 00 20 	beq     cr7,3e24 <rt_mutex_release+0x8c>
    3e08:	81 3f 00 0c 	lwz     r9,12(r31)
    3e0c:	39 40 ff ff 	li      r10,-1
    3e10:	91 49 00 30 	stw     r10,48(r9)
    3e14:	7f c3 f3 78 	mr      r3,r30
    3e18:	48 00 82 99 	bl      c0b0 <rt_hw_interrupt_enable>
    3e1c:	39 20 ff ff 	li      r9,-1
    3e20:	48 00 01 4c 	b       3f6c <rt_mutex_release+0x1d4>
    3e24:	81 3f 00 18 	lwz     r9,24(r31)
    3e28:	89 29 00 1f 	lbz     r9,31(r9)
    3e2c:	55 29 06 3e 	clrlwi  r9,r9,24
    3e30:	39 29 ff ff 	addi    r9,r9,-1
    3e34:	55 2a 06 3e 	clrlwi  r10,r9,24
    3e38:	81 3f 00 18 	lwz     r9,24(r31)
    3e3c:	99 49 00 1f 	stb     r10,31(r9)
    3e40:	81 3f 00 18 	lwz     r9,24(r31)
    3e44:	89 29 00 1f 	lbz     r9,31(r9)
    3e48:	55 29 06 3e 	clrlwi  r9,r9,24
    3e4c:	2f 89 00 00 	cmpwi   cr7,r9,0
    3e50:	40 9e 01 00 	bne     cr7,3f50 <rt_mutex_release+0x1b8>
    3e54:	81 3f 00 18 	lwz     r9,24(r31)
    3e58:	89 29 00 1e 	lbz     r9,30(r9)
    3e5c:	55 2a 06 3e 	clrlwi  r10,r9,24
    3e60:	81 3f 00 18 	lwz     r9,24(r31)
    3e64:	81 29 00 20 	lwz     r9,32(r9)
    3e68:	89 29 00 35 	lbz     r9,53(r9)
    3e6c:	55 29 06 3e 	clrlwi  r9,r9,24
    3e70:	7f 8a 48 40 	cmplw   cr7,r10,r9
    3e74:	41 9e 00 24 	beq     cr7,3e98 <rt_mutex_release+0x100>
    3e78:	81 3f 00 18 	lwz     r9,24(r31)
    3e7c:	81 49 00 20 	lwz     r10,32(r9)
    3e80:	81 3f 00 18 	lwz     r9,24(r31)
    3e84:	39 29 00 1e 	addi    r9,r9,30
    3e88:	7d 43 53 78 	mr      r3,r10
    3e8c:	38 80 00 02 	li      r4,2
    3e90:	7d 25 4b 78 	mr      r5,r9
    3e94:	48 00 5c 1d 	bl      9ab0 <rt_thread_control>
    3e98:	81 3f 00 18 	lwz     r9,24(r31)
    3e9c:	39 29 00 14 	addi    r9,r9,20
    3ea0:	7d 23 4b 78 	mr      r3,r9
    3ea4:	4b ff f3 11 	bl      31b4 <rt_list_isempty>
    3ea8:	7c 69 1b 78 	mr      r9,r3
    3eac:	2f 89 00 00 	cmpwi   cr7,r9,0
    3eb0:	40 9e 00 6c 	bne     cr7,3f1c <rt_mutex_release+0x184>
    3eb4:	81 3f 00 18 	lwz     r9,24(r31)
    3eb8:	81 29 00 14 	lwz     r9,20(r9)
    3ebc:	39 29 ff ec 	addi    r9,r9,-20
    3ec0:	91 3f 00 0c 	stw     r9,12(r31)
    3ec4:	81 3f 00 18 	lwz     r9,24(r31)
    3ec8:	81 5f 00 0c 	lwz     r10,12(r31)
    3ecc:	91 49 00 20 	stw     r10,32(r9)
    3ed0:	81 3f 00 0c 	lwz     r9,12(r31)
    3ed4:	89 29 00 35 	lbz     r9,53(r9)
    3ed8:	55 2a 06 3e 	clrlwi  r10,r9,24
    3edc:	81 3f 00 18 	lwz     r9,24(r31)
    3ee0:	99 49 00 1e 	stb     r10,30(r9)
    3ee4:	81 3f 00 18 	lwz     r9,24(r31)
    3ee8:	89 29 00 1f 	lbz     r9,31(r9)
    3eec:	55 29 06 3e 	clrlwi  r9,r9,24
    3ef0:	39 29 00 01 	addi    r9,r9,1
    3ef4:	55 2a 06 3e 	clrlwi  r10,r9,24
    3ef8:	81 3f 00 18 	lwz     r9,24(r31)
    3efc:	99 49 00 1f 	stb     r10,31(r9)
    3f00:	81 3f 00 18 	lwz     r9,24(r31)
    3f04:	39 29 00 14 	addi    r9,r9,20
    3f08:	7d 23 4b 78 	mr      r3,r9
    3f0c:	4b ff f4 55 	bl      3360 <rt_ipc_list_resume>
    3f10:	39 20 00 01 	li      r9,1
    3f14:	91 3f 00 08 	stw     r9,8(r31)
    3f18:	48 00 00 38 	b       3f50 <rt_mutex_release+0x1b8>
    3f1c:	81 3f 00 18 	lwz     r9,24(r31)
    3f20:	a1 29 00 1c 	lhz     r9,28(r9)
    3f24:	55 29 04 3e 	clrlwi  r9,r9,16
    3f28:	39 29 00 01 	addi    r9,r9,1
    3f2c:	55 2a 04 3e 	clrlwi  r10,r9,16
    3f30:	81 3f 00 18 	lwz     r9,24(r31)
    3f34:	b1 49 00 1c 	sth     r10,28(r9)
    3f38:	81 3f 00 18 	lwz     r9,24(r31)
    3f3c:	39 40 00 00 	li      r10,0
    3f40:	91 49 00 20 	stw     r10,32(r9)
    3f44:	81 3f 00 18 	lwz     r9,24(r31)
    3f48:	39 40 ff ff 	li      r10,-1
    3f4c:	99 49 00 1e 	stb     r10,30(r9)
    3f50:	7f c3 f3 78 	mr      r3,r30
    3f54:	48 00 81 5d 	bl      c0b0 <rt_hw_interrupt_enable>
    3f58:	81 3f 00 08 	lwz     r9,8(r31)
    3f5c:	2f 89 00 01 	cmpwi   cr7,r9,1
    3f60:	40 9e 00 08 	bne     cr7,3f68 <rt_mutex_release+0x1d0>
    3f64:	48 00 4e e1 	bl      8e44 <rt_schedule>
    3f68:	39 20 00 00 	li      r9,0
    3f6c:	7d 23 4b 78 	mr      r3,r9
    3f70:	39 7f 00 30 	addi    r11,r31,48
    3f74:	80 0b 00 04 	lwz     r0,4(r11)
    3f78:	7c 08 03 a6 	mtlr    r0
    3f7c:	83 cb ff f8 	lwz     r30,-8(r11)
    3f80:	83 eb ff fc 	lwz     r31,-4(r11)
    3f84:	7d 61 5b 78 	mr      r1,r11
    3f88:	4e 80 00 20 	blr

00003f8c <rt_mutex_control>:
    3f8c:	94 21 ff e0 	stwu    r1,-32(r1)
    3f90:	93 e1 00 1c 	stw     r31,28(r1)
    3f94:	7c 3f 0b 78 	mr      r31,r1
    3f98:	90 7f 00 08 	stw     r3,8(r31)
    3f9c:	7c 89 23 78 	mr      r9,r4
    3fa0:	90 bf 00 10 	stw     r5,16(r31)
    3fa4:	99 3f 00 0c 	stb     r9,12(r31)
    3fa8:	39 20 ff ff 	li      r9,-1
    3fac:	7d 23 4b 78 	mr      r3,r9
    3fb0:	39 7f 00 20 	addi    r11,r31,32
    3fb4:	83 eb ff fc 	lwz     r31,-4(r11)
    3fb8:	7d 61 5b 78 	mr      r1,r11
    3fbc:	4e 80 00 20 	blr

00003fc0 <rt_event_init>:
    3fc0:	94 21 ff e0 	stwu    r1,-32(r1)
    3fc4:	7c 08 02 a6 	mflr    r0
    3fc8:	90 01 00 24 	stw     r0,36(r1)
    3fcc:	93 e1 00 1c 	stw     r31,28(r1)
    3fd0:	7c 3f 0b 78 	mr      r31,r1
    3fd4:	90 7f 00 08 	stw     r3,8(r31)
    3fd8:	90 9f 00 0c 	stw     r4,12(r31)
    3fdc:	7c a9 2b 78 	mr      r9,r5
    3fe0:	99 3f 00 10 	stb     r9,16(r31)
    3fe4:	81 3f 00 08 	lwz     r9,8(r31)
    3fe8:	7d 23 4b 78 	mr      r3,r9
    3fec:	38 80 00 03 	li      r4,3
    3ff0:	80 bf 00 0c 	lwz     r5,12(r31)
    3ff4:	48 00 47 a9 	bl      879c <rt_object_init>
    3ff8:	81 3f 00 08 	lwz     r9,8(r31)
    3ffc:	89 5f 00 10 	lbz     r10,16(r31)
    4000:	99 49 00 09 	stb     r10,9(r9)
    4004:	81 3f 00 08 	lwz     r9,8(r31)
    4008:	7d 23 4b 78 	mr      r3,r9
    400c:	4b ff f1 e9 	bl      31f4 <rt_ipc_object_init>
    4010:	81 3f 00 08 	lwz     r9,8(r31)
    4014:	39 40 00 00 	li      r10,0
    4018:	91 49 00 1c 	stw     r10,28(r9)
    401c:	39 20 00 00 	li      r9,0
    4020:	7d 23 4b 78 	mr      r3,r9
    4024:	39 7f 00 20 	addi    r11,r31,32
    4028:	80 0b 00 04 	lwz     r0,4(r11)
    402c:	7c 08 03 a6 	mtlr    r0
    4030:	83 eb ff fc 	lwz     r31,-4(r11)
    4034:	7d 61 5b 78 	mr      r1,r11
    4038:	4e 80 00 20 	blr

0000403c <rt_event_detach>:
    403c:	94 21 ff e0 	stwu    r1,-32(r1)
    4040:	7c 08 02 a6 	mflr    r0
    4044:	90 01 00 24 	stw     r0,36(r1)
    4048:	93 e1 00 1c 	stw     r31,28(r1)
    404c:	7c 3f 0b 78 	mr      r31,r1
    4050:	90 7f 00 08 	stw     r3,8(r31)
    4054:	81 3f 00 08 	lwz     r9,8(r31)
    4058:	39 29 00 14 	addi    r9,r9,20
    405c:	7d 23 4b 78 	mr      r3,r9
    4060:	4b ff f3 51 	bl      33b0 <rt_ipc_list_resume_all>
    4064:	81 3f 00 08 	lwz     r9,8(r31)
    4068:	7d 23 4b 78 	mr      r3,r9
    406c:	48 00 48 09 	bl      8874 <rt_object_detach>
    4070:	39 20 00 00 	li      r9,0
    4074:	7d 23 4b 78 	mr      r3,r9
    4078:	39 7f 00 20 	addi    r11,r31,32
    407c:	80 0b 00 04 	lwz     r0,4(r11)
    4080:	7c 08 03 a6 	mtlr    r0
    4084:	83 eb ff fc 	lwz     r31,-4(r11)
    4088:	7d 61 5b 78 	mr      r1,r11
    408c:	4e 80 00 20 	blr

00004090 <rt_event_create>:
    4090:	94 21 ff d0 	stwu    r1,-48(r1)
    4094:	7c 08 02 a6 	mflr    r0
    4098:	90 01 00 34 	stw     r0,52(r1)
    409c:	93 e1 00 2c 	stw     r31,44(r1)
    40a0:	7c 3f 0b 78 	mr      r31,r1
    40a4:	90 7f 00 18 	stw     r3,24(r31)
    40a8:	7c 89 23 78 	mr      r9,r4
    40ac:	99 3f 00 1c 	stb     r9,28(r31)
    40b0:	38 60 00 03 	li      r3,3
    40b4:	80 9f 00 18 	lwz     r4,24(r31)
    40b8:	48 00 48 39 	bl      88f0 <rt_object_allocate>
    40bc:	90 7f 00 08 	stw     r3,8(r31)
    40c0:	81 3f 00 08 	lwz     r9,8(r31)
    40c4:	2f 89 00 00 	cmpwi   cr7,r9,0
    40c8:	40 9e 00 0c 	bne     cr7,40d4 <rt_event_create+0x44>
    40cc:	81 3f 00 08 	lwz     r9,8(r31)
    40d0:	48 00 00 2c 	b       40fc <rt_event_create+0x6c>
    40d4:	81 3f 00 08 	lwz     r9,8(r31)
    40d8:	89 5f 00 1c 	lbz     r10,28(r31)
    40dc:	99 49 00 09 	stb     r10,9(r9)
    40e0:	81 3f 00 08 	lwz     r9,8(r31)
    40e4:	7d 23 4b 78 	mr      r3,r9
    40e8:	4b ff f1 0d 	bl      31f4 <rt_ipc_object_init>
    40ec:	81 3f 00 08 	lwz     r9,8(r31)
    40f0:	39 40 00 00 	li      r10,0
    40f4:	91 49 00 1c 	stw     r10,28(r9)
    40f8:	81 3f 00 08 	lwz     r9,8(r31)
    40fc:	7d 23 4b 78 	mr      r3,r9
    4100:	39 7f 00 30 	addi    r11,r31,48
    4104:	80 0b 00 04 	lwz     r0,4(r11)
    4108:	7c 08 03 a6 	mtlr    r0
    410c:	83 eb ff fc 	lwz     r31,-4(r11)
    4110:	7d 61 5b 78 	mr      r1,r11
    4114:	4e 80 00 20 	blr

00004118 <rt_event_delete>:
    4118:	94 21 ff e0 	stwu    r1,-32(r1)
    411c:	7c 08 02 a6 	mflr    r0
    4120:	90 01 00 24 	stw     r0,36(r1)
    4124:	93 e1 00 1c 	stw     r31,28(r1)
    4128:	7c 3f 0b 78 	mr      r31,r1
    412c:	90 7f 00 08 	stw     r3,8(r31)
    4130:	81 3f 00 08 	lwz     r9,8(r31)
    4134:	39 29 00 14 	addi    r9,r9,20
    4138:	7d 23 4b 78 	mr      r3,r9
    413c:	4b ff f2 75 	bl      33b0 <rt_ipc_list_resume_all>
    4140:	81 3f 00 08 	lwz     r9,8(r31)
    4144:	7d 23 4b 78 	mr      r3,r9
    4148:	48 00 48 ad 	bl      89f4 <rt_object_delete>
    414c:	39 20 00 00 	li      r9,0
    4150:	7d 23 4b 78 	mr      r3,r9
    4154:	39 7f 00 20 	addi    r11,r31,32
    4158:	80 0b 00 04 	lwz     r0,4(r11)
    415c:	7c 08 03 a6 	mtlr    r0
    4160:	83 eb ff fc 	lwz     r31,-4(r11)
    4164:	7d 61 5b 78 	mr      r1,r11
    4168:	4e 80 00 20 	blr

0000416c <rt_event_send>:
    416c:	94 21 ff d0 	stwu    r1,-48(r1)
    4170:	7c 08 02 a6 	mflr    r0
    4174:	90 01 00 34 	stw     r0,52(r1)
    4178:	93 a1 00 24 	stw     r29,36(r1)
    417c:	93 c1 00 28 	stw     r30,40(r1)
    4180:	93 e1 00 2c 	stw     r31,44(r1)
    4184:	7c 3f 0b 78 	mr      r31,r1
    4188:	90 7f 00 18 	stw     r3,24(r31)
    418c:	90 9f 00 1c 	stw     r4,28(r31)
    4190:	81 3f 00 1c 	lwz     r9,28(r31)
    4194:	2f 89 00 00 	cmpwi   cr7,r9,0
    4198:	40 9e 00 0c 	bne     cr7,41a4 <rt_event_send+0x38>
    419c:	39 20 ff ff 	li      r9,-1
    41a0:	48 00 01 bc 	b       435c <rt_event_send+0x1f0>
    41a4:	39 20 00 00 	li      r9,0
    41a8:	91 3f 00 0c 	stw     r9,12(r31)
    41ac:	3d 20 00 02 	lis     r9,2
    41b0:	81 29 bc 08 	lwz     r9,-17400(r9)
    41b4:	2f 89 00 00 	cmpwi   cr7,r9,0
    41b8:	41 9e 00 1c 	beq     cr7,41d4 <rt_event_send+0x68>
    41bc:	3d 20 00 02 	lis     r9,2
    41c0:	81 29 bc 08 	lwz     r9,-17400(r9)
    41c4:	81 5f 00 18 	lwz     r10,24(r31)
    41c8:	7d 43 53 78 	mr      r3,r10
    41cc:	7d 29 03 a6 	mtctr   r9
    41d0:	4e 80 04 21 	bctrl
    41d4:	48 00 7e c5 	bl      c098 <rt_hw_interrupt_disable>
    41d8:	7c 69 1b 78 	mr      r9,r3
    41dc:	7d 3d 4b 78 	mr      r29,r9
    41e0:	81 3f 00 18 	lwz     r9,24(r31)
    41e4:	81 49 00 1c 	lwz     r10,28(r9)
    41e8:	81 3f 00 1c 	lwz     r9,28(r31)
    41ec:	7d 4a 4b 78 	or      r10,r10,r9
    41f0:	81 3f 00 18 	lwz     r9,24(r31)
    41f4:	91 49 00 1c 	stw     r10,28(r9)
    41f8:	81 3f 00 18 	lwz     r9,24(r31)
    41fc:	39 29 00 14 	addi    r9,r9,20
    4200:	7d 23 4b 78 	mr      r3,r9
    4204:	4b ff ef b1 	bl      31b4 <rt_list_isempty>
    4208:	7c 69 1b 78 	mr      r9,r3
    420c:	2f 89 00 00 	cmpwi   cr7,r9,0
    4210:	40 9e 01 2c 	bne     cr7,433c <rt_event_send+0x1d0>
    4214:	81 3f 00 18 	lwz     r9,24(r31)
    4218:	81 29 00 14 	lwz     r9,20(r9)
    421c:	91 3f 00 08 	stw     r9,8(r31)
    4220:	48 00 01 08 	b       4328 <rt_event_send+0x1bc>
    4224:	81 3f 00 08 	lwz     r9,8(r31)
    4228:	39 29 ff ec 	addi    r9,r9,-20
    422c:	91 3f 00 10 	stw     r9,16(r31)
    4230:	3b c0 ff ff 	li      r30,-1
    4234:	81 3f 00 10 	lwz     r9,16(r31)
    4238:	89 29 00 40 	lbz     r9,64(r9)
    423c:	55 29 06 3e 	clrlwi  r9,r9,24
    4240:	55 29 07 fe 	clrlwi  r9,r9,31
    4244:	2f 89 00 00 	cmpwi   cr7,r9,0
    4248:	41 9e 00 30 	beq     cr7,4278 <rt_event_send+0x10c>
    424c:	81 3f 00 10 	lwz     r9,16(r31)
    4250:	81 49 00 3c 	lwz     r10,60(r9)
    4254:	81 3f 00 18 	lwz     r9,24(r31)
    4258:	81 29 00 1c 	lwz     r9,28(r9)
    425c:	7d 4a 48 38 	and     r10,r10,r9
    4260:	81 3f 00 10 	lwz     r9,16(r31)
    4264:	81 29 00 3c 	lwz     r9,60(r9)
    4268:	7f 8a 48 40 	cmplw   cr7,r10,r9
    426c:	40 9e 00 60 	bne     cr7,42cc <rt_event_send+0x160>
    4270:	3b c0 00 00 	li      r30,0
    4274:	48 00 00 58 	b       42cc <rt_event_send+0x160>
    4278:	81 3f 00 10 	lwz     r9,16(r31)
    427c:	89 29 00 40 	lbz     r9,64(r9)
    4280:	55 29 06 3e 	clrlwi  r9,r9,24
    4284:	55 29 07 bc 	rlwinm  r9,r9,0,30,30
    4288:	2f 89 00 00 	cmpwi   cr7,r9,0
    428c:	41 9e 00 40 	beq     cr7,42cc <rt_event_send+0x160>
    4290:	81 3f 00 10 	lwz     r9,16(r31)
    4294:	81 49 00 3c 	lwz     r10,60(r9)
    4298:	81 3f 00 18 	lwz     r9,24(r31)
    429c:	81 29 00 1c 	lwz     r9,28(r9)
    42a0:	7d 49 48 38 	and     r9,r10,r9
    42a4:	2f 89 00 00 	cmpwi   cr7,r9,0
    42a8:	41 9e 00 24 	beq     cr7,42cc <rt_event_send+0x160>
    42ac:	81 3f 00 10 	lwz     r9,16(r31)
    42b0:	81 49 00 3c 	lwz     r10,60(r9)
    42b4:	81 3f 00 18 	lwz     r9,24(r31)
    42b8:	81 29 00 1c 	lwz     r9,28(r9)
    42bc:	7d 4a 48 38 	and     r10,r10,r9
    42c0:	81 3f 00 10 	lwz     r9,16(r31)
    42c4:	91 49 00 3c 	stw     r10,60(r9)
    42c8:	3b c0 00 00 	li      r30,0
    42cc:	81 3f 00 08 	lwz     r9,8(r31)
    42d0:	81 29 00 00 	lwz     r9,0(r9)
    42d4:	91 3f 00 08 	stw     r9,8(r31)
    42d8:	2f 9e 00 00 	cmpwi   cr7,r30,0
    42dc:	40 9e 00 4c 	bne     cr7,4328 <rt_event_send+0x1bc>
    42e0:	81 3f 00 10 	lwz     r9,16(r31)
    42e4:	89 29 00 40 	lbz     r9,64(r9)
    42e8:	55 29 06 3e 	clrlwi  r9,r9,24
    42ec:	55 29 07 7a 	rlwinm  r9,r9,0,29,29
    42f0:	2f 89 00 00 	cmpwi   cr7,r9,0
    42f4:	41 9e 00 24 	beq     cr7,4318 <rt_event_send+0x1ac>
    42f8:	81 3f 00 18 	lwz     r9,24(r31)
    42fc:	81 49 00 1c 	lwz     r10,28(r9)
    4300:	81 3f 00 10 	lwz     r9,16(r31)
    4304:	81 29 00 3c 	lwz     r9,60(r9)
    4308:	7d 29 48 f8 	not     r9,r9
    430c:	7d 4a 48 38 	and     r10,r10,r9
    4310:	81 3f 00 18 	lwz     r9,24(r31)
    4314:	91 49 00 1c 	stw     r10,28(r9)
    4318:	80 7f 00 10 	lwz     r3,16(r31)
    431c:	48 00 59 61 	bl      9c7c <rt_thread_resume>
    4320:	39 20 00 01 	li      r9,1
    4324:	91 3f 00 0c 	stw     r9,12(r31)
    4328:	81 3f 00 18 	lwz     r9,24(r31)
    432c:	39 49 00 14 	addi    r10,r9,20
    4330:	81 3f 00 08 	lwz     r9,8(r31)
    4334:	7f 8a 48 00 	cmpw    cr7,r10,r9
    4338:	40 9e fe ec 	bne     cr7,4224 <rt_event_send+0xb8>
    433c:	7f a9 eb 78 	mr      r9,r29
    4340:	7d 23 4b 78 	mr      r3,r9
    4344:	48 00 7d 6d 	bl      c0b0 <rt_hw_interrupt_enable>
    4348:	81 3f 00 0c 	lwz     r9,12(r31)
    434c:	2f 89 00 01 	cmpwi   cr7,r9,1
    4350:	40 9e 00 08 	bne     cr7,4358 <rt_event_send+0x1ec>
    4354:	48 00 4a f1 	bl      8e44 <rt_schedule>
    4358:	39 20 00 00 	li      r9,0
    435c:	7d 23 4b 78 	mr      r3,r9
    4360:	39 7f 00 30 	addi    r11,r31,48
    4364:	80 0b 00 04 	lwz     r0,4(r11)
    4368:	7c 08 03 a6 	mtlr    r0
    436c:	83 ab ff f4 	lwz     r29,-12(r11)
    4370:	83 cb ff f8 	lwz     r30,-8(r11)
    4374:	83 eb ff fc 	lwz     r31,-4(r11)
    4378:	7d 61 5b 78 	mr      r1,r11
    437c:	4e 80 00 20 	blr

00004380 <rt_event_recv>:
    4380:	94 21 ff c0 	stwu    r1,-64(r1)
    4384:	7c 08 02 a6 	mflr    r0
    4388:	90 01 00 44 	stw     r0,68(r1)
    438c:	93 a1 00 34 	stw     r29,52(r1)
    4390:	93 c1 00 38 	stw     r30,56(r1)
    4394:	93 e1 00 3c 	stw     r31,60(r1)
    4398:	7c 3f 0b 78 	mr      r31,r1
    439c:	90 7f 00 18 	stw     r3,24(r31)
    43a0:	90 9f 00 1c 	stw     r4,28(r31)
    43a4:	7c a9 2b 78 	mr      r9,r5
    43a8:	90 df 00 24 	stw     r6,36(r31)
    43ac:	90 ff 00 28 	stw     r7,40(r31)
    43b0:	99 3f 00 20 	stb     r9,32(r31)
    43b4:	81 3f 00 1c 	lwz     r9,28(r31)
    43b8:	2f 89 00 00 	cmpwi   cr7,r9,0
    43bc:	40 9e 00 0c 	bne     cr7,43c8 <rt_event_recv+0x48>
    43c0:	39 20 ff ff 	li      r9,-1
    43c4:	48 00 02 20 	b       45e4 <rt_event_recv+0x264>
    43c8:	3b c0 ff ff 	li      r30,-1
    43cc:	48 00 52 75 	bl      9640 <rt_thread_self>
    43d0:	90 7f 00 08 	stw     r3,8(r31)
    43d4:	81 3f 00 08 	lwz     r9,8(r31)
    43d8:	39 40 00 00 	li      r10,0
    43dc:	91 49 00 30 	stw     r10,48(r9)
    43e0:	3d 20 00 02 	lis     r9,2
    43e4:	81 29 bc 10 	lwz     r9,-17392(r9)
    43e8:	2f 89 00 00 	cmpwi   cr7,r9,0
    43ec:	41 9e 00 1c 	beq     cr7,4408 <rt_event_recv+0x88>
    43f0:	3d 20 00 02 	lis     r9,2
    43f4:	81 29 bc 10 	lwz     r9,-17392(r9)
    43f8:	81 5f 00 18 	lwz     r10,24(r31)
    43fc:	7d 43 53 78 	mr      r3,r10
    4400:	7d 29 03 a6 	mtctr   r9
    4404:	4e 80 04 21 	bctrl
    4408:	48 00 7c 91 	bl      c098 <rt_hw_interrupt_disable>
    440c:	7c 69 1b 78 	mr      r9,r3
    4410:	7d 3d 4b 78 	mr      r29,r9
    4414:	89 3f 00 20 	lbz     r9,32(r31)
    4418:	55 29 06 3e 	clrlwi  r9,r9,24
    441c:	55 29 07 fe 	clrlwi  r9,r9,31
    4420:	2f 89 00 00 	cmpwi   cr7,r9,0
    4424:	41 9e 00 28 	beq     cr7,444c <rt_event_recv+0xcc>
    4428:	81 3f 00 18 	lwz     r9,24(r31)
    442c:	81 49 00 1c 	lwz     r10,28(r9)
    4430:	81 3f 00 1c 	lwz     r9,28(r31)
    4434:	7d 4a 48 38 	and     r10,r10,r9
    4438:	81 3f 00 1c 	lwz     r9,28(r31)
    443c:	7f 8a 48 00 	cmpw    cr7,r10,r9
    4440:	40 9e 00 3c 	bne     cr7,447c <rt_event_recv+0xfc>
    4444:	3b c0 00 00 	li      r30,0
    4448:	48 00 00 34 	b       447c <rt_event_recv+0xfc>
    444c:	89 3f 00 20 	lbz     r9,32(r31)
    4450:	55 29 06 3e 	clrlwi  r9,r9,24
    4454:	55 29 07 bc 	rlwinm  r9,r9,0,30,30
    4458:	2f 89 00 00 	cmpwi   cr7,r9,0
    445c:	41 9e 00 20 	beq     cr7,447c <rt_event_recv+0xfc>
    4460:	81 3f 00 18 	lwz     r9,24(r31)
    4464:	81 49 00 1c 	lwz     r10,28(r9)
    4468:	81 3f 00 1c 	lwz     r9,28(r31)
    446c:	7d 49 48 38 	and     r9,r10,r9
    4470:	2f 89 00 00 	cmpwi   cr7,r9,0
    4474:	41 9e 00 08 	beq     cr7,447c <rt_event_recv+0xfc>
    4478:	3b c0 00 00 	li      r30,0
    447c:	2f 9e 00 00 	cmpwi   cr7,r30,0
    4480:	40 9e 00 50 	bne     cr7,44d0 <rt_event_recv+0x150>
    4484:	81 3f 00 18 	lwz     r9,24(r31)
    4488:	81 49 00 1c 	lwz     r10,28(r9)
    448c:	81 3f 00 1c 	lwz     r9,28(r31)
    4490:	7d 4a 48 38 	and     r10,r10,r9
    4494:	81 3f 00 28 	lwz     r9,40(r31)
    4498:	91 49 00 00 	stw     r10,0(r9)
    449c:	89 3f 00 20 	lbz     r9,32(r31)
    44a0:	55 29 06 3e 	clrlwi  r9,r9,24
    44a4:	55 29 07 7a 	rlwinm  r9,r9,0,29,29
    44a8:	2f 89 00 00 	cmpwi   cr7,r9,0
    44ac:	41 9e 00 fc 	beq     cr7,45a8 <rt_event_recv+0x228>
    44b0:	81 3f 00 18 	lwz     r9,24(r31)
    44b4:	81 49 00 1c 	lwz     r10,28(r9)
    44b8:	81 3f 00 1c 	lwz     r9,28(r31)
    44bc:	7d 29 48 f8 	not     r9,r9
    44c0:	7d 4a 48 38 	and     r10,r10,r9
    44c4:	81 3f 00 18 	lwz     r9,24(r31)
    44c8:	91 49 00 1c 	stw     r10,28(r9)
    44cc:	48 00 00 dc 	b       45a8 <rt_event_recv+0x228>
    44d0:	81 3f 00 24 	lwz     r9,36(r31)
    44d4:	2f 89 00 00 	cmpwi   cr7,r9,0
    44d8:	40 9e 00 14 	bne     cr7,44ec <rt_event_recv+0x16c>
    44dc:	81 3f 00 08 	lwz     r9,8(r31)
    44e0:	39 40 ff fe 	li      r10,-2
    44e4:	91 49 00 30 	stw     r10,48(r9)
    44e8:	48 00 00 c0 	b       45a8 <rt_event_recv+0x228>
    44ec:	81 3f 00 08 	lwz     r9,8(r31)
    44f0:	81 5f 00 1c 	lwz     r10,28(r31)
    44f4:	91 49 00 3c 	stw     r10,60(r9)
    44f8:	81 3f 00 08 	lwz     r9,8(r31)
    44fc:	89 5f 00 20 	lbz     r10,32(r31)
    4500:	99 49 00 40 	stb     r10,64(r9)
    4504:	81 3f 00 18 	lwz     r9,24(r31)
    4508:	39 49 00 14 	addi    r10,r9,20
    450c:	81 3f 00 18 	lwz     r9,24(r31)
    4510:	89 29 00 09 	lbz     r9,9(r9)
    4514:	55 29 06 3e 	clrlwi  r9,r9,24
    4518:	7d 43 53 78 	mr      r3,r10
    451c:	80 9f 00 08 	lwz     r4,8(r31)
    4520:	7d 25 4b 78 	mr      r5,r9
    4524:	4b ff ed 19 	bl      323c <rt_ipc_list_suspend>
    4528:	81 3f 00 24 	lwz     r9,36(r31)
    452c:	2f 89 00 00 	cmpwi   cr7,r9,0
    4530:	40 9d 00 30 	ble     cr7,4560 <rt_event_recv+0x1e0>
    4534:	81 3f 00 08 	lwz     r9,8(r31)
    4538:	39 49 00 4c 	addi    r10,r9,76
    453c:	39 3f 00 24 	addi    r9,r31,36
    4540:	7d 43 53 78 	mr      r3,r10
    4544:	38 80 00 00 	li      r4,0
    4548:	7d 25 4b 78 	mr      r5,r9
    454c:	48 00 61 c1 	bl      a70c <rt_timer_control>
    4550:	81 3f 00 08 	lwz     r9,8(r31)
    4554:	39 29 00 4c 	addi    r9,r9,76
    4558:	7d 23 4b 78 	mr      r3,r9
    455c:	48 00 5d e5 	bl      a340 <rt_timer_start>
    4560:	7f a9 eb 78 	mr      r9,r29
    4564:	7d 23 4b 78 	mr      r3,r9
    4568:	48 00 7b 49 	bl      c0b0 <rt_hw_interrupt_enable>
    456c:	48 00 48 d9 	bl      8e44 <rt_schedule>
    4570:	81 3f 00 08 	lwz     r9,8(r31)
    4574:	81 29 00 30 	lwz     r9,48(r9)
    4578:	2f 89 00 00 	cmpwi   cr7,r9,0
    457c:	41 9e 00 10 	beq     cr7,458c <rt_event_recv+0x20c>
    4580:	81 3f 00 08 	lwz     r9,8(r31)
    4584:	81 29 00 30 	lwz     r9,48(r9)
    4588:	48 00 00 5c 	b       45e4 <rt_event_recv+0x264>
    458c:	48 00 7b 0d 	bl      c098 <rt_hw_interrupt_disable>
    4590:	7c 69 1b 78 	mr      r9,r3
    4594:	7d 3d 4b 78 	mr      r29,r9
    4598:	81 3f 00 08 	lwz     r9,8(r31)
    459c:	81 49 00 3c 	lwz     r10,60(r9)
    45a0:	81 3f 00 28 	lwz     r9,40(r31)
    45a4:	91 49 00 00 	stw     r10,0(r9)
    45a8:	7f a9 eb 78 	mr      r9,r29
    45ac:	7d 23 4b 78 	mr      r3,r9
    45b0:	48 00 7b 01 	bl      c0b0 <rt_hw_interrupt_enable>
    45b4:	3d 20 00 02 	lis     r9,2
    45b8:	81 29 bc 0c 	lwz     r9,-17396(r9)
    45bc:	2f 89 00 00 	cmpwi   cr7,r9,0
    45c0:	41 9e 00 1c 	beq     cr7,45dc <rt_event_recv+0x25c>
    45c4:	3d 20 00 02 	lis     r9,2
    45c8:	81 29 bc 0c 	lwz     r9,-17396(r9)
    45cc:	81 5f 00 18 	lwz     r10,24(r31)
    45d0:	7d 43 53 78 	mr      r3,r10
    45d4:	7d 29 03 a6 	mtctr   r9
    45d8:	4e 80 04 21 	bctrl
    45dc:	81 3f 00 08 	lwz     r9,8(r31)
    45e0:	81 29 00 30 	lwz     r9,48(r9)
    45e4:	7d 23 4b 78 	mr      r3,r9
    45e8:	39 7f 00 40 	addi    r11,r31,64
    45ec:	80 0b 00 04 	lwz     r0,4(r11)
    45f0:	7c 08 03 a6 	mtlr    r0
    45f4:	83 ab ff f4 	lwz     r29,-12(r11)
    45f8:	83 cb ff f8 	lwz     r30,-8(r11)
    45fc:	83 eb ff fc 	lwz     r31,-4(r11)
    4600:	7d 61 5b 78 	mr      r1,r11
    4604:	4e 80 00 20 	blr

00004608 <rt_event_control>:
    4608:	94 21 ff d0 	stwu    r1,-48(r1)
    460c:	7c 08 02 a6 	mflr    r0
    4610:	90 01 00 34 	stw     r0,52(r1)
    4614:	93 e1 00 2c 	stw     r31,44(r1)
    4618:	7c 3f 0b 78 	mr      r31,r1
    461c:	90 7f 00 18 	stw     r3,24(r31)
    4620:	7c 89 23 78 	mr      r9,r4
    4624:	90 bf 00 20 	stw     r5,32(r31)
    4628:	99 3f 00 1c 	stb     r9,28(r31)
    462c:	89 3f 00 1c 	lbz     r9,28(r31)
    4630:	55 29 06 3e 	clrlwi  r9,r9,24
    4634:	2f 89 00 01 	cmpwi   cr7,r9,1
    4638:	40 9e 00 44 	bne     cr7,467c <rt_event_control+0x74>
    463c:	48 00 7a 5d 	bl      c098 <rt_hw_interrupt_disable>
    4640:	7c 69 1b 78 	mr      r9,r3
    4644:	91 3f 00 08 	stw     r9,8(r31)
    4648:	81 3f 00 18 	lwz     r9,24(r31)
    464c:	39 29 00 14 	addi    r9,r9,20
    4650:	7d 23 4b 78 	mr      r3,r9
    4654:	4b ff ed 5d 	bl      33b0 <rt_ipc_list_resume_all>
    4658:	81 3f 00 18 	lwz     r9,24(r31)
    465c:	39 40 00 00 	li      r10,0
    4660:	91 49 00 1c 	stw     r10,28(r9)
    4664:	81 3f 00 08 	lwz     r9,8(r31)
    4668:	7d 23 4b 78 	mr      r3,r9
    466c:	48 00 7a 45 	bl      c0b0 <rt_hw_interrupt_enable>
    4670:	48 00 47 d5 	bl      8e44 <rt_schedule>
    4674:	39 20 00 00 	li      r9,0
    4678:	48 00 00 08 	b       4680 <rt_event_control+0x78>
    467c:	39 20 ff ff 	li      r9,-1
    4680:	7d 23 4b 78 	mr      r3,r9
    4684:	39 7f 00 30 	addi    r11,r31,48
    4688:	80 0b 00 04 	lwz     r0,4(r11)
    468c:	7c 08 03 a6 	mtlr    r0
    4690:	83 eb ff fc 	lwz     r31,-4(r11)
    4694:	7d 61 5b 78 	mr      r1,r11
    4698:	4e 80 00 20 	blr

0000469c <rt_mb_init>:
    469c:	94 21 ff d0 	stwu    r1,-48(r1)
    46a0:	7c 08 02 a6 	mflr    r0
    46a4:	90 01 00 34 	stw     r0,52(r1)
    46a8:	93 e1 00 2c 	stw     r31,44(r1)
    46ac:	7c 3f 0b 78 	mr      r31,r1
    46b0:	90 7f 00 08 	stw     r3,8(r31)
    46b4:	90 9f 00 0c 	stw     r4,12(r31)
    46b8:	90 bf 00 10 	stw     r5,16(r31)
    46bc:	90 df 00 14 	stw     r6,20(r31)
    46c0:	7c e9 3b 78 	mr      r9,r7
    46c4:	99 3f 00 18 	stb     r9,24(r31)
    46c8:	81 3f 00 08 	lwz     r9,8(r31)
    46cc:	7d 23 4b 78 	mr      r3,r9
    46d0:	38 80 00 04 	li      r4,4
    46d4:	80 bf 00 0c 	lwz     r5,12(r31)
    46d8:	48 00 40 c5 	bl      879c <rt_object_init>
    46dc:	81 3f 00 08 	lwz     r9,8(r31)
    46e0:	89 5f 00 18 	lbz     r10,24(r31)
    46e4:	99 49 00 09 	stb     r10,9(r9)
    46e8:	81 3f 00 08 	lwz     r9,8(r31)
    46ec:	7d 23 4b 78 	mr      r3,r9
    46f0:	4b ff eb 05 	bl      31f4 <rt_ipc_object_init>
    46f4:	81 3f 00 08 	lwz     r9,8(r31)
    46f8:	81 5f 00 10 	lwz     r10,16(r31)
    46fc:	91 49 00 1c 	stw     r10,28(r9)
    4700:	81 3f 00 14 	lwz     r9,20(r31)
    4704:	55 2a 04 3e 	clrlwi  r10,r9,16
    4708:	81 3f 00 08 	lwz     r9,8(r31)
    470c:	b1 49 00 20 	sth     r10,32(r9)
    4710:	81 3f 00 08 	lwz     r9,8(r31)
    4714:	39 40 00 00 	li      r10,0
    4718:	b1 49 00 22 	sth     r10,34(r9)
    471c:	81 3f 00 08 	lwz     r9,8(r31)
    4720:	39 40 00 00 	li      r10,0
    4724:	b1 49 00 24 	sth     r10,36(r9)
    4728:	81 3f 00 08 	lwz     r9,8(r31)
    472c:	39 40 00 00 	li      r10,0
    4730:	b1 49 00 26 	sth     r10,38(r9)
    4734:	81 3f 00 08 	lwz     r9,8(r31)
    4738:	39 29 00 28 	addi    r9,r9,40
    473c:	7d 23 4b 78 	mr      r3,r9
    4740:	4b ff e9 dd 	bl      311c <rt_list_init>
    4744:	39 20 00 00 	li      r9,0
    4748:	7d 23 4b 78 	mr      r3,r9
    474c:	39 7f 00 30 	addi    r11,r31,48
    4750:	80 0b 00 04 	lwz     r0,4(r11)
    4754:	7c 08 03 a6 	mtlr    r0
    4758:	83 eb ff fc 	lwz     r31,-4(r11)
    475c:	7d 61 5b 78 	mr      r1,r11
    4760:	4e 80 00 20 	blr

00004764 <rt_mb_detach>:
    4764:	94 21 ff e0 	stwu    r1,-32(r1)
    4768:	7c 08 02 a6 	mflr    r0
    476c:	90 01 00 24 	stw     r0,36(r1)
    4770:	93 e1 00 1c 	stw     r31,28(r1)
    4774:	7c 3f 0b 78 	mr      r31,r1
    4778:	90 7f 00 08 	stw     r3,8(r31)
    477c:	81 3f 00 08 	lwz     r9,8(r31)
    4780:	39 29 00 14 	addi    r9,r9,20
    4784:	7d 23 4b 78 	mr      r3,r9
    4788:	4b ff ec 29 	bl      33b0 <rt_ipc_list_resume_all>
    478c:	81 3f 00 08 	lwz     r9,8(r31)
    4790:	39 29 00 28 	addi    r9,r9,40
    4794:	7d 23 4b 78 	mr      r3,r9
    4798:	4b ff ec 19 	bl      33b0 <rt_ipc_list_resume_all>
    479c:	81 3f 00 08 	lwz     r9,8(r31)
    47a0:	7d 23 4b 78 	mr      r3,r9
    47a4:	48 00 40 d1 	bl      8874 <rt_object_detach>
    47a8:	39 20 00 00 	li      r9,0
    47ac:	7d 23 4b 78 	mr      r3,r9
    47b0:	39 7f 00 20 	addi    r11,r31,32
    47b4:	80 0b 00 04 	lwz     r0,4(r11)
    47b8:	7c 08 03 a6 	mtlr    r0
    47bc:	83 eb ff fc 	lwz     r31,-4(r11)
    47c0:	7d 61 5b 78 	mr      r1,r11
    47c4:	4e 80 00 20 	blr

000047c8 <rt_mb_create>:
    47c8:	94 21 ff d0 	stwu    r1,-48(r1)
    47cc:	7c 08 02 a6 	mflr    r0
    47d0:	90 01 00 34 	stw     r0,52(r1)
    47d4:	93 e1 00 2c 	stw     r31,44(r1)
    47d8:	7c 3f 0b 78 	mr      r31,r1
    47dc:	90 7f 00 18 	stw     r3,24(r31)
    47e0:	90 9f 00 1c 	stw     r4,28(r31)
    47e4:	7c a9 2b 78 	mr      r9,r5
    47e8:	99 3f 00 20 	stb     r9,32(r31)
    47ec:	38 60 00 04 	li      r3,4
    47f0:	80 9f 00 18 	lwz     r4,24(r31)
    47f4:	48 00 40 fd 	bl      88f0 <rt_object_allocate>
    47f8:	90 7f 00 08 	stw     r3,8(r31)
    47fc:	81 3f 00 08 	lwz     r9,8(r31)
    4800:	2f 89 00 00 	cmpwi   cr7,r9,0
    4804:	40 9e 00 0c 	bne     cr7,4810 <rt_mb_create+0x48>
    4808:	81 3f 00 08 	lwz     r9,8(r31)
    480c:	48 00 00 ac 	b       48b8 <rt_mb_create+0xf0>
    4810:	81 3f 00 08 	lwz     r9,8(r31)
    4814:	89 5f 00 20 	lbz     r10,32(r31)
    4818:	99 49 00 09 	stb     r10,9(r9)
    481c:	81 3f 00 08 	lwz     r9,8(r31)
    4820:	7d 23 4b 78 	mr      r3,r9
    4824:	4b ff e9 d1 	bl      31f4 <rt_ipc_object_init>
    4828:	81 3f 00 1c 	lwz     r9,28(r31)
    482c:	55 2a 04 3e 	clrlwi  r10,r9,16
    4830:	81 3f 00 08 	lwz     r9,8(r31)
    4834:	b1 49 00 20 	sth     r10,32(r9)
    4838:	81 3f 00 08 	lwz     r9,8(r31)
    483c:	a1 29 00 20 	lhz     r9,32(r9)
    4840:	55 29 04 3e 	clrlwi  r9,r9,16
    4844:	55 29 10 3a 	rlwinm  r9,r9,2,0,29
    4848:	7d 23 4b 78 	mr      r3,r9
    484c:	48 00 34 e9 	bl      7d34 <rt_malloc>
    4850:	7c 6a 1b 78 	mr      r10,r3
    4854:	81 3f 00 08 	lwz     r9,8(r31)
    4858:	91 49 00 1c 	stw     r10,28(r9)
    485c:	81 3f 00 08 	lwz     r9,8(r31)
    4860:	81 29 00 1c 	lwz     r9,28(r9)
    4864:	2f 89 00 00 	cmpwi   cr7,r9,0
    4868:	40 9e 00 18 	bne     cr7,4880 <rt_mb_create+0xb8>
    486c:	81 3f 00 08 	lwz     r9,8(r31)
    4870:	7d 23 4b 78 	mr      r3,r9
    4874:	48 00 41 81 	bl      89f4 <rt_object_delete>
    4878:	39 20 00 00 	li      r9,0
    487c:	48 00 00 3c 	b       48b8 <rt_mb_create+0xf0>
    4880:	81 3f 00 08 	lwz     r9,8(r31)
    4884:	39 40 00 00 	li      r10,0
    4888:	b1 49 00 22 	sth     r10,34(r9)
    488c:	81 3f 00 08 	lwz     r9,8(r31)
    4890:	39 40 00 00 	li      r10,0
    4894:	b1 49 00 24 	sth     r10,36(r9)
    4898:	81 3f 00 08 	lwz     r9,8(r31)
    489c:	39 40 00 00 	li      r10,0
    48a0:	b1 49 00 26 	sth     r10,38(r9)
    48a4:	81 3f 00 08 	lwz     r9,8(r31)
    48a8:	39 29 00 28 	addi    r9,r9,40
    48ac:	7d 23 4b 78 	mr      r3,r9
    48b0:	4b ff e8 6d 	bl      311c <rt_list_init>
    48b4:	81 3f 00 08 	lwz     r9,8(r31)
    48b8:	7d 23 4b 78 	mr      r3,r9
    48bc:	39 7f 00 30 	addi    r11,r31,48
    48c0:	80 0b 00 04 	lwz     r0,4(r11)
    48c4:	7c 08 03 a6 	mtlr    r0
    48c8:	83 eb ff fc 	lwz     r31,-4(r11)
    48cc:	7d 61 5b 78 	mr      r1,r11
    48d0:	4e 80 00 20 	blr

000048d4 <rt_mb_delete>:
    48d4:	94 21 ff e0 	stwu    r1,-32(r1)
    48d8:	7c 08 02 a6 	mflr    r0
    48dc:	90 01 00 24 	stw     r0,36(r1)
    48e0:	93 e1 00 1c 	stw     r31,28(r1)
    48e4:	7c 3f 0b 78 	mr      r31,r1
    48e8:	90 7f 00 08 	stw     r3,8(r31)
    48ec:	81 3f 00 08 	lwz     r9,8(r31)
    48f0:	39 29 00 14 	addi    r9,r9,20
    48f4:	7d 23 4b 78 	mr      r3,r9
    48f8:	4b ff ea b9 	bl      33b0 <rt_ipc_list_resume_all>
    48fc:	81 3f 00 08 	lwz     r9,8(r31)
    4900:	39 29 00 28 	addi    r9,r9,40
    4904:	7d 23 4b 78 	mr      r3,r9
    4908:	4b ff ea a9 	bl      33b0 <rt_ipc_list_resume_all>
    490c:	81 3f 00 08 	lwz     r9,8(r31)
    4910:	81 29 00 1c 	lwz     r9,28(r9)
    4914:	7d 23 4b 78 	mr      r3,r9
    4918:	48 00 3a 79 	bl      8390 <rt_free>
    491c:	81 3f 00 08 	lwz     r9,8(r31)
    4920:	7d 23 4b 78 	mr      r3,r9
    4924:	48 00 40 d1 	bl      89f4 <rt_object_delete>
    4928:	39 20 00 00 	li      r9,0
    492c:	7d 23 4b 78 	mr      r3,r9
    4930:	39 7f 00 20 	addi    r11,r31,32
    4934:	80 0b 00 04 	lwz     r0,4(r11)
    4938:	7c 08 03 a6 	mtlr    r0
    493c:	83 eb ff fc 	lwz     r31,-4(r11)
    4940:	7d 61 5b 78 	mr      r1,r11
    4944:	4e 80 00 20 	blr

00004948 <rt_mb_send_wait>:
    4948:	94 21 ff d0 	stwu    r1,-48(r1)
    494c:	7c 08 02 a6 	mflr    r0
    4950:	90 01 00 34 	stw     r0,52(r1)
    4954:	93 c1 00 28 	stw     r30,40(r1)
    4958:	93 e1 00 2c 	stw     r31,44(r1)
    495c:	7c 3f 0b 78 	mr      r31,r1
    4960:	90 7f 00 18 	stw     r3,24(r31)
    4964:	90 9f 00 1c 	stw     r4,28(r31)
    4968:	90 bf 00 20 	stw     r5,32(r31)
    496c:	39 20 00 00 	li      r9,0
    4970:	91 3f 00 08 	stw     r9,8(r31)
    4974:	48 00 4c cd 	bl      9640 <rt_thread_self>
    4978:	90 7f 00 0c 	stw     r3,12(r31)
    497c:	3d 20 00 02 	lis     r9,2
    4980:	81 29 bc 08 	lwz     r9,-17400(r9)
    4984:	2f 89 00 00 	cmpwi   cr7,r9,0
    4988:	41 9e 00 1c 	beq     cr7,49a4 <rt_mb_send_wait+0x5c>
    498c:	3d 20 00 02 	lis     r9,2
    4990:	81 29 bc 08 	lwz     r9,-17400(r9)
    4994:	81 5f 00 18 	lwz     r10,24(r31)
    4998:	7d 43 53 78 	mr      r3,r10
    499c:	7d 29 03 a6 	mtctr   r9
    49a0:	4e 80 04 21 	bctrl
    49a4:	48 00 76 f5 	bl      c098 <rt_hw_interrupt_disable>
    49a8:	7c 69 1b 78 	mr      r9,r3
    49ac:	7d 3e 4b 78 	mr      r30,r9
    49b0:	81 3f 00 18 	lwz     r9,24(r31)
    49b4:	a1 29 00 22 	lhz     r9,34(r9)
    49b8:	55 2a 04 3e 	clrlwi  r10,r9,16
    49bc:	81 3f 00 18 	lwz     r9,24(r31)
    49c0:	a1 29 00 20 	lhz     r9,32(r9)
    49c4:	55 29 04 3e 	clrlwi  r9,r9,16
    49c8:	7f 8a 48 40 	cmplw   cr7,r10,r9
    49cc:	40 9e 00 24 	bne     cr7,49f0 <rt_mb_send_wait+0xa8>
    49d0:	81 3f 00 20 	lwz     r9,32(r31)
    49d4:	2f 89 00 00 	cmpwi   cr7,r9,0
    49d8:	40 9e 00 18 	bne     cr7,49f0 <rt_mb_send_wait+0xa8>
    49dc:	7f c9 f3 78 	mr      r9,r30
    49e0:	7d 23 4b 78 	mr      r3,r9
    49e4:	48 00 76 cd 	bl      c0b0 <rt_hw_interrupt_enable>
    49e8:	39 20 ff fd 	li      r9,-3
    49ec:	48 00 02 14 	b       4c00 <rt_mb_send_wait+0x2b8>
    49f0:	48 00 01 14 	b       4b04 <rt_mb_send_wait+0x1bc>
    49f4:	81 3f 00 0c 	lwz     r9,12(r31)
    49f8:	39 40 00 00 	li      r10,0
    49fc:	91 49 00 30 	stw     r10,48(r9)
    4a00:	81 3f 00 20 	lwz     r9,32(r31)
    4a04:	2f 89 00 00 	cmpwi   cr7,r9,0
    4a08:	40 9e 00 18 	bne     cr7,4a20 <rt_mb_send_wait+0xd8>
    4a0c:	7f c9 f3 78 	mr      r9,r30
    4a10:	7d 23 4b 78 	mr      r3,r9
    4a14:	48 00 76 9d 	bl      c0b0 <rt_hw_interrupt_enable>
    4a18:	39 20 ff fd 	li      r9,-3
    4a1c:	48 00 01 e4 	b       4c00 <rt_mb_send_wait+0x2b8>
    4a20:	81 3f 00 18 	lwz     r9,24(r31)
    4a24:	39 49 00 28 	addi    r10,r9,40
    4a28:	81 3f 00 18 	lwz     r9,24(r31)
    4a2c:	89 29 00 09 	lbz     r9,9(r9)
    4a30:	55 29 06 3e 	clrlwi  r9,r9,24
    4a34:	7d 43 53 78 	mr      r3,r10
    4a38:	80 9f 00 0c 	lwz     r4,12(r31)
    4a3c:	7d 25 4b 78 	mr      r5,r9
    4a40:	4b ff e7 fd 	bl      323c <rt_ipc_list_suspend>
    4a44:	81 3f 00 20 	lwz     r9,32(r31)
    4a48:	2f 89 00 00 	cmpwi   cr7,r9,0
    4a4c:	40 9d 00 38 	ble     cr7,4a84 <rt_mb_send_wait+0x13c>
    4a50:	4b ff db c1 	bl      2610 <rt_tick_get>
    4a54:	90 7f 00 08 	stw     r3,8(r31)
    4a58:	81 3f 00 0c 	lwz     r9,12(r31)
    4a5c:	39 49 00 4c 	addi    r10,r9,76
    4a60:	39 3f 00 20 	addi    r9,r31,32
    4a64:	7d 43 53 78 	mr      r3,r10
    4a68:	38 80 00 00 	li      r4,0
    4a6c:	7d 25 4b 78 	mr      r5,r9
    4a70:	48 00 5c 9d 	bl      a70c <rt_timer_control>
    4a74:	81 3f 00 0c 	lwz     r9,12(r31)
    4a78:	39 29 00 4c 	addi    r9,r9,76
    4a7c:	7d 23 4b 78 	mr      r3,r9
    4a80:	48 00 58 c1 	bl      a340 <rt_timer_start>
    4a84:	7f c9 f3 78 	mr      r9,r30
    4a88:	7d 23 4b 78 	mr      r3,r9
    4a8c:	48 00 76 25 	bl      c0b0 <rt_hw_interrupt_enable>
    4a90:	48 00 43 b5 	bl      8e44 <rt_schedule>
    4a94:	81 3f 00 0c 	lwz     r9,12(r31)
    4a98:	81 29 00 30 	lwz     r9,48(r9)
    4a9c:	2f 89 00 00 	cmpwi   cr7,r9,0
    4aa0:	41 9e 00 10 	beq     cr7,4ab0 <rt_mb_send_wait+0x168>
    4aa4:	81 3f 00 0c 	lwz     r9,12(r31)
    4aa8:	81 29 00 30 	lwz     r9,48(r9)
    4aac:	48 00 01 54 	b       4c00 <rt_mb_send_wait+0x2b8>
    4ab0:	48 00 75 e9 	bl      c098 <rt_hw_interrupt_disable>
    4ab4:	7c 69 1b 78 	mr      r9,r3
    4ab8:	7d 3e 4b 78 	mr      r30,r9
    4abc:	81 3f 00 20 	lwz     r9,32(r31)
    4ac0:	2f 89 00 00 	cmpwi   cr7,r9,0
    4ac4:	40 9d 00 40 	ble     cr7,4b04 <rt_mb_send_wait+0x1bc>
    4ac8:	4b ff db 49 	bl      2610 <rt_tick_get>
    4acc:	7c 6a 1b 78 	mr      r10,r3
    4ad0:	81 3f 00 08 	lwz     r9,8(r31)
    4ad4:	7d 29 50 50 	subf    r9,r9,r10
    4ad8:	91 3f 00 08 	stw     r9,8(r31)
    4adc:	81 3f 00 20 	lwz     r9,32(r31)
    4ae0:	7d 2a 4b 78 	mr      r10,r9
    4ae4:	81 3f 00 08 	lwz     r9,8(r31)
    4ae8:	7d 29 50 50 	subf    r9,r9,r10
    4aec:	91 3f 00 20 	stw     r9,32(r31)
    4af0:	81 3f 00 20 	lwz     r9,32(r31)
    4af4:	2f 89 00 00 	cmpwi   cr7,r9,0
    4af8:	40 9c 00 0c 	bge     cr7,4b04 <rt_mb_send_wait+0x1bc>
    4afc:	39 20 00 00 	li      r9,0
    4b00:	91 3f 00 20 	stw     r9,32(r31)
    4b04:	81 3f 00 18 	lwz     r9,24(r31)
    4b08:	a1 29 00 22 	lhz     r9,34(r9)
    4b0c:	55 2a 04 3e 	clrlwi  r10,r9,16
    4b10:	81 3f 00 18 	lwz     r9,24(r31)
    4b14:	a1 29 00 20 	lhz     r9,32(r9)
    4b18:	55 29 04 3e 	clrlwi  r9,r9,16
    4b1c:	7f 8a 48 40 	cmplw   cr7,r10,r9
    4b20:	41 9e fe d4 	beq     cr7,49f4 <rt_mb_send_wait+0xac>
    4b24:	81 3f 00 18 	lwz     r9,24(r31)
    4b28:	81 49 00 1c 	lwz     r10,28(r9)
    4b2c:	81 3f 00 18 	lwz     r9,24(r31)
    4b30:	a1 29 00 24 	lhz     r9,36(r9)
    4b34:	55 29 04 3e 	clrlwi  r9,r9,16
    4b38:	55 29 10 3a 	rlwinm  r9,r9,2,0,29
    4b3c:	7d 2a 4a 14 	add     r9,r10,r9
    4b40:	81 5f 00 1c 	lwz     r10,28(r31)
    4b44:	91 49 00 00 	stw     r10,0(r9)
    4b48:	81 3f 00 18 	lwz     r9,24(r31)
    4b4c:	a1 29 00 24 	lhz     r9,36(r9)
    4b50:	55 29 04 3e 	clrlwi  r9,r9,16
    4b54:	39 29 00 01 	addi    r9,r9,1
    4b58:	55 2a 04 3e 	clrlwi  r10,r9,16
    4b5c:	81 3f 00 18 	lwz     r9,24(r31)
    4b60:	b1 49 00 24 	sth     r10,36(r9)
    4b64:	81 3f 00 18 	lwz     r9,24(r31)
    4b68:	a1 29 00 24 	lhz     r9,36(r9)
    4b6c:	55 2a 04 3e 	clrlwi  r10,r9,16
    4b70:	81 3f 00 18 	lwz     r9,24(r31)
    4b74:	a1 29 00 20 	lhz     r9,32(r9)
    4b78:	55 29 04 3e 	clrlwi  r9,r9,16
    4b7c:	7f 8a 48 40 	cmplw   cr7,r10,r9
    4b80:	41 9c 00 10 	blt     cr7,4b90 <rt_mb_send_wait+0x248>
    4b84:	81 3f 00 18 	lwz     r9,24(r31)
    4b88:	39 40 00 00 	li      r10,0
    4b8c:	b1 49 00 24 	sth     r10,36(r9)
    4b90:	81 3f 00 18 	lwz     r9,24(r31)
    4b94:	a1 29 00 22 	lhz     r9,34(r9)
    4b98:	55 29 04 3e 	clrlwi  r9,r9,16
    4b9c:	39 29 00 01 	addi    r9,r9,1
    4ba0:	55 2a 04 3e 	clrlwi  r10,r9,16
    4ba4:	81 3f 00 18 	lwz     r9,24(r31)
    4ba8:	b1 49 00 22 	sth     r10,34(r9)
    4bac:	81 3f 00 18 	lwz     r9,24(r31)
    4bb0:	39 29 00 14 	addi    r9,r9,20
    4bb4:	7d 23 4b 78 	mr      r3,r9
    4bb8:	4b ff e5 fd 	bl      31b4 <rt_list_isempty>
    4bbc:	7c 69 1b 78 	mr      r9,r3
    4bc0:	2f 89 00 00 	cmpwi   cr7,r9,0
    4bc4:	40 9e 00 2c 	bne     cr7,4bf0 <rt_mb_send_wait+0x2a8>
    4bc8:	81 3f 00 18 	lwz     r9,24(r31)
    4bcc:	39 29 00 14 	addi    r9,r9,20
    4bd0:	7d 23 4b 78 	mr      r3,r9
    4bd4:	4b ff e7 8d 	bl      3360 <rt_ipc_list_resume>
    4bd8:	7f c9 f3 78 	mr      r9,r30
    4bdc:	7d 23 4b 78 	mr      r3,r9
    4be0:	48 00 74 d1 	bl      c0b0 <rt_hw_interrupt_enable>
    4be4:	48 00 42 61 	bl      8e44 <rt_schedule>
    4be8:	39 20 00 00 	li      r9,0
    4bec:	48 00 00 14 	b       4c00 <rt_mb_send_wait+0x2b8>
    4bf0:	7f c9 f3 78 	mr      r9,r30
    4bf4:	7d 23 4b 78 	mr      r3,r9
    4bf8:	48 00 74 b9 	bl      c0b0 <rt_hw_interrupt_enable>
    4bfc:	39 20 00 00 	li      r9,0
    4c00:	7d 23 4b 78 	mr      r3,r9
    4c04:	39 7f 00 30 	addi    r11,r31,48
    4c08:	80 0b 00 04 	lwz     r0,4(r11)
    4c0c:	7c 08 03 a6 	mtlr    r0
    4c10:	83 cb ff f8 	lwz     r30,-8(r11)
    4c14:	83 eb ff fc 	lwz     r31,-4(r11)
    4c18:	7d 61 5b 78 	mr      r1,r11
    4c1c:	4e 80 00 20 	blr

00004c20 <rt_mb_send>:
    4c20:	94 21 ff e0 	stwu    r1,-32(r1)
    4c24:	7c 08 02 a6 	mflr    r0
    4c28:	90 01 00 24 	stw     r0,36(r1)
    4c2c:	93 e1 00 1c 	stw     r31,28(r1)
    4c30:	7c 3f 0b 78 	mr      r31,r1
    4c34:	90 7f 00 08 	stw     r3,8(r31)
    4c38:	90 9f 00 0c 	stw     r4,12(r31)
    4c3c:	80 7f 00 08 	lwz     r3,8(r31)
    4c40:	80 9f 00 0c 	lwz     r4,12(r31)
    4c44:	38 a0 00 00 	li      r5,0
    4c48:	4b ff fd 01 	bl      4948 <rt_mb_send_wait>
    4c4c:	7c 69 1b 78 	mr      r9,r3
    4c50:	7d 23 4b 78 	mr      r3,r9
    4c54:	39 7f 00 20 	addi    r11,r31,32
    4c58:	80 0b 00 04 	lwz     r0,4(r11)
    4c5c:	7c 08 03 a6 	mtlr    r0
    4c60:	83 eb ff fc 	lwz     r31,-4(r11)
    4c64:	7d 61 5b 78 	mr      r1,r11
    4c68:	4e 80 00 20 	blr

00004c6c <rt_mb_recv>:
    4c6c:	94 21 ff d0 	stwu    r1,-48(r1)
    4c70:	7c 08 02 a6 	mflr    r0
    4c74:	90 01 00 34 	stw     r0,52(r1)
    4c78:	93 c1 00 28 	stw     r30,40(r1)
    4c7c:	93 e1 00 2c 	stw     r31,44(r1)
    4c80:	7c 3f 0b 78 	mr      r31,r1
    4c84:	90 7f 00 18 	stw     r3,24(r31)
    4c88:	90 9f 00 1c 	stw     r4,28(r31)
    4c8c:	90 bf 00 20 	stw     r5,32(r31)
    4c90:	39 20 00 00 	li      r9,0
    4c94:	91 3f 00 08 	stw     r9,8(r31)
    4c98:	48 00 49 a9 	bl      9640 <rt_thread_self>
    4c9c:	90 7f 00 0c 	stw     r3,12(r31)
    4ca0:	3d 20 00 02 	lis     r9,2
    4ca4:	81 29 bc 10 	lwz     r9,-17392(r9)
    4ca8:	2f 89 00 00 	cmpwi   cr7,r9,0
    4cac:	41 9e 00 1c 	beq     cr7,4cc8 <rt_mb_recv+0x5c>
    4cb0:	3d 20 00 02 	lis     r9,2
    4cb4:	81 29 bc 10 	lwz     r9,-17392(r9)
    4cb8:	81 5f 00 18 	lwz     r10,24(r31)
    4cbc:	7d 43 53 78 	mr      r3,r10
    4cc0:	7d 29 03 a6 	mtctr   r9
    4cc4:	4e 80 04 21 	bctrl
    4cc8:	48 00 73 d1 	bl      c098 <rt_hw_interrupt_disable>
    4ccc:	7c 69 1b 78 	mr      r9,r3
    4cd0:	7d 3e 4b 78 	mr      r30,r9
    4cd4:	81 3f 00 18 	lwz     r9,24(r31)
    4cd8:	a1 29 00 22 	lhz     r9,34(r9)
    4cdc:	55 29 04 3e 	clrlwi  r9,r9,16
    4ce0:	2f 89 00 00 	cmpwi   cr7,r9,0
    4ce4:	40 9e 00 24 	bne     cr7,4d08 <rt_mb_recv+0x9c>
    4ce8:	81 3f 00 20 	lwz     r9,32(r31)
    4cec:	2f 89 00 00 	cmpwi   cr7,r9,0
    4cf0:	40 9e 00 18 	bne     cr7,4d08 <rt_mb_recv+0x9c>
    4cf4:	7f c9 f3 78 	mr      r9,r30
    4cf8:	7d 23 4b 78 	mr      r3,r9
    4cfc:	48 00 73 b5 	bl      c0b0 <rt_hw_interrupt_enable>
    4d00:	39 20 ff fe 	li      r9,-2
    4d04:	48 00 02 68 	b       4f6c <rt_mb_recv+0x300>
    4d08:	48 00 01 20 	b       4e28 <rt_mb_recv+0x1bc>
    4d0c:	81 3f 00 0c 	lwz     r9,12(r31)
    4d10:	39 40 00 00 	li      r10,0
    4d14:	91 49 00 30 	stw     r10,48(r9)
    4d18:	81 3f 00 20 	lwz     r9,32(r31)
    4d1c:	2f 89 00 00 	cmpwi   cr7,r9,0
    4d20:	40 9e 00 24 	bne     cr7,4d44 <rt_mb_recv+0xd8>
    4d24:	7f c9 f3 78 	mr      r9,r30
    4d28:	7d 23 4b 78 	mr      r3,r9
    4d2c:	48 00 73 85 	bl      c0b0 <rt_hw_interrupt_enable>
    4d30:	81 3f 00 0c 	lwz     r9,12(r31)
    4d34:	39 40 ff fe 	li      r10,-2
    4d38:	91 49 00 30 	stw     r10,48(r9)
    4d3c:	39 20 ff fe 	li      r9,-2
    4d40:	48 00 02 2c 	b       4f6c <rt_mb_recv+0x300>
    4d44:	81 3f 00 18 	lwz     r9,24(r31)
    4d48:	39 49 00 14 	addi    r10,r9,20
    4d4c:	81 3f 00 18 	lwz     r9,24(r31)
    4d50:	89 29 00 09 	lbz     r9,9(r9)
    4d54:	55 29 06 3e 	clrlwi  r9,r9,24
    4d58:	7d 43 53 78 	mr      r3,r10
    4d5c:	80 9f 00 0c 	lwz     r4,12(r31)
    4d60:	7d 25 4b 78 	mr      r5,r9
    4d64:	4b ff e4 d9 	bl      323c <rt_ipc_list_suspend>
    4d68:	81 3f 00 20 	lwz     r9,32(r31)
    4d6c:	2f 89 00 00 	cmpwi   cr7,r9,0
    4d70:	40 9d 00 38 	ble     cr7,4da8 <rt_mb_recv+0x13c>
    4d74:	4b ff d8 9d 	bl      2610 <rt_tick_get>
    4d78:	90 7f 00 08 	stw     r3,8(r31)
    4d7c:	81 3f 00 0c 	lwz     r9,12(r31)
    4d80:	39 49 00 4c 	addi    r10,r9,76
    4d84:	39 3f 00 20 	addi    r9,r31,32
    4d88:	7d 43 53 78 	mr      r3,r10
    4d8c:	38 80 00 00 	li      r4,0
    4d90:	7d 25 4b 78 	mr      r5,r9
    4d94:	48 00 59 79 	bl      a70c <rt_timer_control>
    4d98:	81 3f 00 0c 	lwz     r9,12(r31)
    4d9c:	39 29 00 4c 	addi    r9,r9,76
    4da0:	7d 23 4b 78 	mr      r3,r9
    4da4:	48 00 55 9d 	bl      a340 <rt_timer_start>
    4da8:	7f c9 f3 78 	mr      r9,r30
    4dac:	7d 23 4b 78 	mr      r3,r9
    4db0:	48 00 73 01 	bl      c0b0 <rt_hw_interrupt_enable>
    4db4:	48 00 40 91 	bl      8e44 <rt_schedule>
    4db8:	81 3f 00 0c 	lwz     r9,12(r31)
    4dbc:	81 29 00 30 	lwz     r9,48(r9)
    4dc0:	2f 89 00 00 	cmpwi   cr7,r9,0
    4dc4:	41 9e 00 10 	beq     cr7,4dd4 <rt_mb_recv+0x168>
    4dc8:	81 3f 00 0c 	lwz     r9,12(r31)
    4dcc:	81 29 00 30 	lwz     r9,48(r9)
    4dd0:	48 00 01 9c 	b       4f6c <rt_mb_recv+0x300>
    4dd4:	48 00 72 c5 	bl      c098 <rt_hw_interrupt_disable>
    4dd8:	7c 69 1b 78 	mr      r9,r3
    4ddc:	7d 3e 4b 78 	mr      r30,r9
    4de0:	81 3f 00 20 	lwz     r9,32(r31)
    4de4:	2f 89 00 00 	cmpwi   cr7,r9,0
    4de8:	40 9d 00 40 	ble     cr7,4e28 <rt_mb_recv+0x1bc>
    4dec:	4b ff d8 25 	bl      2610 <rt_tick_get>
    4df0:	7c 6a 1b 78 	mr      r10,r3
    4df4:	81 3f 00 08 	lwz     r9,8(r31)
    4df8:	7d 29 50 50 	subf    r9,r9,r10
    4dfc:	91 3f 00 08 	stw     r9,8(r31)
    4e00:	81 3f 00 20 	lwz     r9,32(r31)
    4e04:	7d 2a 4b 78 	mr      r10,r9
    4e08:	81 3f 00 08 	lwz     r9,8(r31)
    4e0c:	7d 29 50 50 	subf    r9,r9,r10
    4e10:	91 3f 00 20 	stw     r9,32(r31)
    4e14:	81 3f 00 20 	lwz     r9,32(r31)
    4e18:	2f 89 00 00 	cmpwi   cr7,r9,0
    4e1c:	40 9c 00 0c 	bge     cr7,4e28 <rt_mb_recv+0x1bc>
    4e20:	39 20 00 00 	li      r9,0
    4e24:	91 3f 00 20 	stw     r9,32(r31)
    4e28:	81 3f 00 18 	lwz     r9,24(r31)
    4e2c:	a1 29 00 22 	lhz     r9,34(r9)
    4e30:	55 29 04 3e 	clrlwi  r9,r9,16
    4e34:	2f 89 00 00 	cmpwi   cr7,r9,0
    4e38:	41 9e fe d4 	beq     cr7,4d0c <rt_mb_recv+0xa0>
    4e3c:	81 3f 00 18 	lwz     r9,24(r31)
    4e40:	81 49 00 1c 	lwz     r10,28(r9)
    4e44:	81 3f 00 18 	lwz     r9,24(r31)
    4e48:	a1 29 00 26 	lhz     r9,38(r9)
    4e4c:	55 29 04 3e 	clrlwi  r9,r9,16
    4e50:	55 29 10 3a 	rlwinm  r9,r9,2,0,29
    4e54:	7d 2a 4a 14 	add     r9,r10,r9
    4e58:	81 49 00 00 	lwz     r10,0(r9)
    4e5c:	81 3f 00 1c 	lwz     r9,28(r31)
    4e60:	91 49 00 00 	stw     r10,0(r9)
    4e64:	81 3f 00 18 	lwz     r9,24(r31)
    4e68:	a1 29 00 26 	lhz     r9,38(r9)
    4e6c:	55 29 04 3e 	clrlwi  r9,r9,16
    4e70:	39 29 00 01 	addi    r9,r9,1
    4e74:	55 2a 04 3e 	clrlwi  r10,r9,16
    4e78:	81 3f 00 18 	lwz     r9,24(r31)
    4e7c:	b1 49 00 26 	sth     r10,38(r9)
    4e80:	81 3f 00 18 	lwz     r9,24(r31)
    4e84:	a1 29 00 26 	lhz     r9,38(r9)
    4e88:	55 2a 04 3e 	clrlwi  r10,r9,16
    4e8c:	81 3f 00 18 	lwz     r9,24(r31)
    4e90:	a1 29 00 20 	lhz     r9,32(r9)
    4e94:	55 29 04 3e 	clrlwi  r9,r9,16
    4e98:	7f 8a 48 40 	cmplw   cr7,r10,r9
    4e9c:	41 9c 00 10 	blt     cr7,4eac <rt_mb_recv+0x240>
    4ea0:	81 3f 00 18 	lwz     r9,24(r31)
    4ea4:	39 40 00 00 	li      r10,0
    4ea8:	b1 49 00 26 	sth     r10,38(r9)
    4eac:	81 3f 00 18 	lwz     r9,24(r31)
    4eb0:	a1 29 00 22 	lhz     r9,34(r9)
    4eb4:	55 29 04 3e 	clrlwi  r9,r9,16
    4eb8:	39 29 ff ff 	addi    r9,r9,-1
    4ebc:	55 2a 04 3e 	clrlwi  r10,r9,16
    4ec0:	81 3f 00 18 	lwz     r9,24(r31)
    4ec4:	b1 49 00 22 	sth     r10,34(r9)
    4ec8:	81 3f 00 18 	lwz     r9,24(r31)
    4ecc:	39 29 00 28 	addi    r9,r9,40
    4ed0:	7d 23 4b 78 	mr      r3,r9
    4ed4:	4b ff e2 e1 	bl      31b4 <rt_list_isempty>
    4ed8:	7c 69 1b 78 	mr      r9,r3
    4edc:	2f 89 00 00 	cmpwi   cr7,r9,0
    4ee0:	40 9e 00 54 	bne     cr7,4f34 <rt_mb_recv+0x2c8>
    4ee4:	81 3f 00 18 	lwz     r9,24(r31)
    4ee8:	39 29 00 28 	addi    r9,r9,40
    4eec:	7d 23 4b 78 	mr      r3,r9
    4ef0:	4b ff e4 71 	bl      3360 <rt_ipc_list_resume>
    4ef4:	7f c9 f3 78 	mr      r9,r30
    4ef8:	7d 23 4b 78 	mr      r3,r9
    4efc:	48 00 71 b5 	bl      c0b0 <rt_hw_interrupt_enable>
    4f00:	3d 20 00 02 	lis     r9,2
    4f04:	81 29 bc 0c 	lwz     r9,-17396(r9)
    4f08:	2f 89 00 00 	cmpwi   cr7,r9,0
    4f0c:	41 9e 00 1c 	beq     cr7,4f28 <rt_mb_recv+0x2bc>
    4f10:	3d 20 00 02 	lis     r9,2
    4f14:	81 29 bc 0c 	lwz     r9,-17396(r9)
    4f18:	81 5f 00 18 	lwz     r10,24(r31)
    4f1c:	7d 43 53 78 	mr      r3,r10
    4f20:	7d 29 03 a6 	mtctr   r9
    4f24:	4e 80 04 21 	bctrl
    4f28:	48 00 3f 1d 	bl      8e44 <rt_schedule>
    4f2c:	39 20 00 00 	li      r9,0
    4f30:	48 00 00 3c 	b       4f6c <rt_mb_recv+0x300>
    4f34:	7f c9 f3 78 	mr      r9,r30
    4f38:	7d 23 4b 78 	mr      r3,r9
    4f3c:	48 00 71 75 	bl      c0b0 <rt_hw_interrupt_enable>
    4f40:	3d 20 00 02 	lis     r9,2
    4f44:	81 29 bc 0c 	lwz     r9,-17396(r9)
    4f48:	2f 89 00 00 	cmpwi   cr7,r9,0
    4f4c:	41 9e 00 1c 	beq     cr7,4f68 <rt_mb_recv+0x2fc>
    4f50:	3d 20 00 02 	lis     r9,2
    4f54:	81 29 bc 0c 	lwz     r9,-17396(r9)
    4f58:	81 5f 00 18 	lwz     r10,24(r31)
    4f5c:	7d 43 53 78 	mr      r3,r10
    4f60:	7d 29 03 a6 	mtctr   r9
    4f64:	4e 80 04 21 	bctrl
    4f68:	39 20 00 00 	li      r9,0
    4f6c:	7d 23 4b 78 	mr      r3,r9
    4f70:	39 7f 00 30 	addi    r11,r31,48
    4f74:	80 0b 00 04 	lwz     r0,4(r11)
    4f78:	7c 08 03 a6 	mtlr    r0
    4f7c:	83 cb ff f8 	lwz     r30,-8(r11)
    4f80:	83 eb ff fc 	lwz     r31,-4(r11)
    4f84:	7d 61 5b 78 	mr      r1,r11
    4f88:	4e 80 00 20 	blr

00004f8c <rt_mb_control>:
    4f8c:	94 21 ff d0 	stwu    r1,-48(r1)
    4f90:	7c 08 02 a6 	mflr    r0
    4f94:	90 01 00 34 	stw     r0,52(r1)
    4f98:	93 e1 00 2c 	stw     r31,44(r1)
    4f9c:	7c 3f 0b 78 	mr      r31,r1
    4fa0:	90 7f 00 18 	stw     r3,24(r31)
    4fa4:	7c 89 23 78 	mr      r9,r4
    4fa8:	90 bf 00 20 	stw     r5,32(r31)
    4fac:	99 3f 00 1c 	stb     r9,28(r31)
    4fb0:	89 3f 00 1c 	lbz     r9,28(r31)
    4fb4:	55 29 06 3e 	clrlwi  r9,r9,24
    4fb8:	2f 89 00 01 	cmpwi   cr7,r9,1
    4fbc:	40 9e 00 6c 	bne     cr7,5028 <rt_mb_control+0x9c>
    4fc0:	48 00 70 d9 	bl      c098 <rt_hw_interrupt_disable>
    4fc4:	7c 69 1b 78 	mr      r9,r3
    4fc8:	91 3f 00 08 	stw     r9,8(r31)
    4fcc:	81 3f 00 18 	lwz     r9,24(r31)
    4fd0:	39 29 00 14 	addi    r9,r9,20
    4fd4:	7d 23 4b 78 	mr      r3,r9
    4fd8:	4b ff e3 d9 	bl      33b0 <rt_ipc_list_resume_all>
    4fdc:	81 3f 00 18 	lwz     r9,24(r31)
    4fe0:	39 29 00 28 	addi    r9,r9,40
    4fe4:	7d 23 4b 78 	mr      r3,r9
    4fe8:	4b ff e3 c9 	bl      33b0 <rt_ipc_list_resume_all>
    4fec:	81 3f 00 18 	lwz     r9,24(r31)
    4ff0:	39 40 00 00 	li      r10,0
    4ff4:	b1 49 00 22 	sth     r10,34(r9)
    4ff8:	81 3f 00 18 	lwz     r9,24(r31)
    4ffc:	39 40 00 00 	li      r10,0
    5000:	b1 49 00 24 	sth     r10,36(r9)
    5004:	81 3f 00 18 	lwz     r9,24(r31)
    5008:	39 40 00 00 	li      r10,0
    500c:	b1 49 00 26 	sth     r10,38(r9)
    5010:	81 3f 00 08 	lwz     r9,8(r31)
    5014:	7d 23 4b 78 	mr      r3,r9
    5018:	48 00 70 99 	bl      c0b0 <rt_hw_interrupt_enable>
    501c:	48 00 3e 29 	bl      8e44 <rt_schedule>
    5020:	39 20 00 00 	li      r9,0
    5024:	48 00 00 08 	b       502c <rt_mb_control+0xa0>
    5028:	39 20 ff ff 	li      r9,-1
    502c:	7d 23 4b 78 	mr      r3,r9
    5030:	39 7f 00 30 	addi    r11,r31,48
    5034:	80 0b 00 04 	lwz     r0,4(r11)
    5038:	7c 08 03 a6 	mtlr    r0
    503c:	83 eb ff fc 	lwz     r31,-4(r11)
    5040:	7d 61 5b 78 	mr      r1,r11
    5044:	4e 80 00 20 	blr

00005048 <rt_mq_init>:
    5048:	94 21 ff c0 	stwu    r1,-64(r1)
    504c:	7c 08 02 a6 	mflr    r0
    5050:	90 01 00 44 	stw     r0,68(r1)
    5054:	93 c1 00 38 	stw     r30,56(r1)
    5058:	93 e1 00 3c 	stw     r31,60(r1)
    505c:	7c 3f 0b 78 	mr      r31,r1
    5060:	90 7f 00 18 	stw     r3,24(r31)
    5064:	90 9f 00 1c 	stw     r4,28(r31)
    5068:	90 bf 00 20 	stw     r5,32(r31)
    506c:	90 df 00 24 	stw     r6,36(r31)
    5070:	90 ff 00 28 	stw     r7,40(r31)
    5074:	7d 09 43 78 	mr      r9,r8
    5078:	99 3f 00 2c 	stb     r9,44(r31)
    507c:	81 3f 00 18 	lwz     r9,24(r31)
    5080:	7d 23 4b 78 	mr      r3,r9
    5084:	38 80 00 05 	li      r4,5
    5088:	80 bf 00 1c 	lwz     r5,28(r31)
    508c:	48 00 37 11 	bl      879c <rt_object_init>
    5090:	81 3f 00 18 	lwz     r9,24(r31)
    5094:	89 5f 00 2c 	lbz     r10,44(r31)
    5098:	99 49 00 09 	stb     r10,9(r9)
    509c:	81 3f 00 18 	lwz     r9,24(r31)
    50a0:	7d 23 4b 78 	mr      r3,r9
    50a4:	4b ff e1 51 	bl      31f4 <rt_ipc_object_init>
    50a8:	81 3f 00 18 	lwz     r9,24(r31)
    50ac:	81 5f 00 20 	lwz     r10,32(r31)
    50b0:	91 49 00 1c 	stw     r10,28(r9)
    50b4:	81 3f 00 24 	lwz     r9,36(r31)
    50b8:	55 29 04 3e 	clrlwi  r9,r9,16
    50bc:	39 29 00 03 	addi    r9,r9,3
    50c0:	55 29 04 3e 	clrlwi  r9,r9,16
    50c4:	55 29 00 3a 	rlwinm  r9,r9,0,0,29
    50c8:	55 2a 04 3e 	clrlwi  r10,r9,16
    50cc:	81 3f 00 18 	lwz     r9,24(r31)
    50d0:	b1 49 00 20 	sth     r10,32(r9)
    50d4:	81 3f 00 18 	lwz     r9,24(r31)
    50d8:	a1 29 00 20 	lhz     r9,32(r9)
    50dc:	55 29 04 3e 	clrlwi  r9,r9,16
    50e0:	39 29 00 04 	addi    r9,r9,4
    50e4:	81 5f 00 28 	lwz     r10,40(r31)
    50e8:	7d 2a 4b 96 	divwu   r9,r10,r9
    50ec:	55 2a 04 3e 	clrlwi  r10,r9,16
    50f0:	81 3f 00 18 	lwz     r9,24(r31)
    50f4:	b1 49 00 22 	sth     r10,34(r9)
    50f8:	81 3f 00 18 	lwz     r9,24(r31)
    50fc:	39 40 00 00 	li      r10,0
    5100:	91 49 00 28 	stw     r10,40(r9)
    5104:	81 3f 00 18 	lwz     r9,24(r31)
    5108:	39 40 00 00 	li      r10,0
    510c:	91 49 00 2c 	stw     r10,44(r9)
    5110:	81 3f 00 18 	lwz     r9,24(r31)
    5114:	39 40 00 00 	li      r10,0
    5118:	91 49 00 30 	stw     r10,48(r9)
    511c:	3b c0 00 00 	li      r30,0
    5120:	48 00 00 4c 	b       516c <rt_mq_init+0x124>
    5124:	81 3f 00 18 	lwz     r9,24(r31)
    5128:	81 49 00 1c 	lwz     r10,28(r9)
    512c:	81 3f 00 18 	lwz     r9,24(r31)
    5130:	a1 29 00 20 	lhz     r9,32(r9)
    5134:	55 29 04 3e 	clrlwi  r9,r9,16
    5138:	39 29 00 04 	addi    r9,r9,4
    513c:	7f c8 f3 78 	mr      r8,r30
    5140:	7d 29 41 d6 	mullw   r9,r9,r8
    5144:	7d 2a 4a 14 	add     r9,r10,r9
    5148:	91 3f 00 08 	stw     r9,8(r31)
    514c:	81 3f 00 18 	lwz     r9,24(r31)
    5150:	81 49 00 30 	lwz     r10,48(r9)
    5154:	81 3f 00 08 	lwz     r9,8(r31)
    5158:	91 49 00 00 	stw     r10,0(r9)
    515c:	81 3f 00 18 	lwz     r9,24(r31)
    5160:	81 5f 00 08 	lwz     r10,8(r31)
    5164:	91 49 00 30 	stw     r10,48(r9)
    5168:	3b de 00 01 	addi    r30,r30,1
    516c:	81 3f 00 18 	lwz     r9,24(r31)
    5170:	a1 29 00 22 	lhz     r9,34(r9)
    5174:	55 29 04 3e 	clrlwi  r9,r9,16
    5178:	7f 89 f0 00 	cmpw    cr7,r9,r30
    517c:	41 9d ff a8 	bgt     cr7,5124 <rt_mq_init+0xdc>
    5180:	81 3f 00 18 	lwz     r9,24(r31)
    5184:	39 40 00 00 	li      r10,0
    5188:	b1 49 00 24 	sth     r10,36(r9)
    518c:	39 20 00 00 	li      r9,0
    5190:	7d 23 4b 78 	mr      r3,r9
    5194:	39 7f 00 40 	addi    r11,r31,64
    5198:	80 0b 00 04 	lwz     r0,4(r11)
    519c:	7c 08 03 a6 	mtlr    r0
    51a0:	83 cb ff f8 	lwz     r30,-8(r11)
    51a4:	83 eb ff fc 	lwz     r31,-4(r11)
    51a8:	7d 61 5b 78 	mr      r1,r11
    51ac:	4e 80 00 20 	blr

000051b0 <rt_mq_detach>:
    51b0:	94 21 ff e0 	stwu    r1,-32(r1)
    51b4:	7c 08 02 a6 	mflr    r0
    51b8:	90 01 00 24 	stw     r0,36(r1)
    51bc:	93 e1 00 1c 	stw     r31,28(r1)
    51c0:	7c 3f 0b 78 	mr      r31,r1
    51c4:	90 7f 00 08 	stw     r3,8(r31)
    51c8:	81 3f 00 08 	lwz     r9,8(r31)
    51cc:	39 29 00 14 	addi    r9,r9,20
    51d0:	7d 23 4b 78 	mr      r3,r9
    51d4:	4b ff e1 dd 	bl      33b0 <rt_ipc_list_resume_all>
    51d8:	81 3f 00 08 	lwz     r9,8(r31)
    51dc:	7d 23 4b 78 	mr      r3,r9
    51e0:	48 00 36 95 	bl      8874 <rt_object_detach>
    51e4:	39 20 00 00 	li      r9,0
    51e8:	7d 23 4b 78 	mr      r3,r9
    51ec:	39 7f 00 20 	addi    r11,r31,32
    51f0:	80 0b 00 04 	lwz     r0,4(r11)
    51f4:	7c 08 03 a6 	mtlr    r0
    51f8:	83 eb ff fc 	lwz     r31,-4(r11)
    51fc:	7d 61 5b 78 	mr      r1,r11
    5200:	4e 80 00 20 	blr

00005204 <rt_mq_create>:
    5204:	94 21 ff d0 	stwu    r1,-48(r1)
    5208:	7c 08 02 a6 	mflr    r0
    520c:	90 01 00 34 	stw     r0,52(r1)
    5210:	93 c1 00 28 	stw     r30,40(r1)
    5214:	93 e1 00 2c 	stw     r31,44(r1)
    5218:	7c 3f 0b 78 	mr      r31,r1
    521c:	90 7f 00 18 	stw     r3,24(r31)
    5220:	90 9f 00 1c 	stw     r4,28(r31)
    5224:	90 bf 00 20 	stw     r5,32(r31)
    5228:	7c c9 33 78 	mr      r9,r6
    522c:	99 3f 00 24 	stb     r9,36(r31)
    5230:	38 60 00 05 	li      r3,5
    5234:	80 9f 00 18 	lwz     r4,24(r31)
    5238:	48 00 36 b9 	bl      88f0 <rt_object_allocate>
    523c:	90 7f 00 08 	stw     r3,8(r31)
    5240:	81 3f 00 08 	lwz     r9,8(r31)
    5244:	2f 89 00 00 	cmpwi   cr7,r9,0
    5248:	40 9e 00 0c 	bne     cr7,5254 <rt_mq_create+0x50>
    524c:	81 3f 00 08 	lwz     r9,8(r31)
    5250:	48 00 01 38 	b       5388 <rt_mq_create+0x184>
    5254:	81 3f 00 08 	lwz     r9,8(r31)
    5258:	89 5f 00 24 	lbz     r10,36(r31)
    525c:	99 49 00 09 	stb     r10,9(r9)
    5260:	81 3f 00 08 	lwz     r9,8(r31)
    5264:	7d 23 4b 78 	mr      r3,r9
    5268:	4b ff df 8d 	bl      31f4 <rt_ipc_object_init>
    526c:	81 3f 00 1c 	lwz     r9,28(r31)
    5270:	55 29 04 3e 	clrlwi  r9,r9,16
    5274:	39 29 00 03 	addi    r9,r9,3
    5278:	55 29 04 3e 	clrlwi  r9,r9,16
    527c:	55 29 00 3a 	rlwinm  r9,r9,0,0,29
    5280:	55 2a 04 3e 	clrlwi  r10,r9,16
    5284:	81 3f 00 08 	lwz     r9,8(r31)
    5288:	b1 49 00 20 	sth     r10,32(r9)
    528c:	81 3f 00 20 	lwz     r9,32(r31)
    5290:	55 2a 04 3e 	clrlwi  r10,r9,16
    5294:	81 3f 00 08 	lwz     r9,8(r31)
    5298:	b1 49 00 22 	sth     r10,34(r9)
    529c:	81 3f 00 08 	lwz     r9,8(r31)
    52a0:	a1 29 00 20 	lhz     r9,32(r9)
    52a4:	55 29 04 3e 	clrlwi  r9,r9,16
    52a8:	39 29 00 04 	addi    r9,r9,4
    52ac:	81 5f 00 08 	lwz     r10,8(r31)
    52b0:	a1 4a 00 22 	lhz     r10,34(r10)
    52b4:	55 4a 04 3e 	clrlwi  r10,r10,16
    52b8:	7d 29 51 d6 	mullw   r9,r9,r10
    52bc:	7d 23 4b 78 	mr      r3,r9
    52c0:	48 00 2a 75 	bl      7d34 <rt_malloc>
    52c4:	7c 6a 1b 78 	mr      r10,r3
    52c8:	81 3f 00 08 	lwz     r9,8(r31)
    52cc:	91 49 00 1c 	stw     r10,28(r9)
    52d0:	81 3f 00 08 	lwz     r9,8(r31)
    52d4:	81 29 00 1c 	lwz     r9,28(r9)
    52d8:	2f 89 00 00 	cmpwi   cr7,r9,0
    52dc:	40 9e 00 14 	bne     cr7,52f0 <rt_mq_create+0xec>
    52e0:	80 7f 00 08 	lwz     r3,8(r31)
    52e4:	48 00 00 c5 	bl      53a8 <rt_mq_delete>
    52e8:	39 20 00 00 	li      r9,0
    52ec:	48 00 00 9c 	b       5388 <rt_mq_create+0x184>
    52f0:	81 3f 00 08 	lwz     r9,8(r31)
    52f4:	39 40 00 00 	li      r10,0
    52f8:	91 49 00 28 	stw     r10,40(r9)
    52fc:	81 3f 00 08 	lwz     r9,8(r31)
    5300:	39 40 00 00 	li      r10,0
    5304:	91 49 00 2c 	stw     r10,44(r9)
    5308:	81 3f 00 08 	lwz     r9,8(r31)
    530c:	39 40 00 00 	li      r10,0
    5310:	91 49 00 30 	stw     r10,48(r9)
    5314:	3b c0 00 00 	li      r30,0
    5318:	48 00 00 4c 	b       5364 <rt_mq_create+0x160>
    531c:	81 3f 00 08 	lwz     r9,8(r31)
    5320:	81 49 00 1c 	lwz     r10,28(r9)
    5324:	81 3f 00 08 	lwz     r9,8(r31)
    5328:	a1 29 00 20 	lhz     r9,32(r9)
    532c:	55 29 04 3e 	clrlwi  r9,r9,16
    5330:	39 29 00 04 	addi    r9,r9,4
    5334:	7f c8 f3 78 	mr      r8,r30
    5338:	7d 29 41 d6 	mullw   r9,r9,r8
    533c:	7d 2a 4a 14 	add     r9,r10,r9
    5340:	91 3f 00 0c 	stw     r9,12(r31)
    5344:	81 3f 00 08 	lwz     r9,8(r31)
    5348:	81 49 00 30 	lwz     r10,48(r9)
    534c:	81 3f 00 0c 	lwz     r9,12(r31)
    5350:	91 49 00 00 	stw     r10,0(r9)
    5354:	81 3f 00 08 	lwz     r9,8(r31)
    5358:	81 5f 00 0c 	lwz     r10,12(r31)
    535c:	91 49 00 30 	stw     r10,48(r9)
    5360:	3b de 00 01 	addi    r30,r30,1
    5364:	81 3f 00 08 	lwz     r9,8(r31)
    5368:	a1 29 00 22 	lhz     r9,34(r9)
    536c:	55 29 04 3e 	clrlwi  r9,r9,16
    5370:	7f 89 f0 00 	cmpw    cr7,r9,r30
    5374:	41 9d ff a8 	bgt     cr7,531c <rt_mq_create+0x118>
    5378:	81 3f 00 08 	lwz     r9,8(r31)
    537c:	39 40 00 00 	li      r10,0
    5380:	b1 49 00 24 	sth     r10,36(r9)
    5384:	81 3f 00 08 	lwz     r9,8(r31)
    5388:	7d 23 4b 78 	mr      r3,r9
    538c:	39 7f 00 30 	addi    r11,r31,48
    5390:	80 0b 00 04 	lwz     r0,4(r11)
    5394:	7c 08 03 a6 	mtlr    r0
    5398:	83 cb ff f8 	lwz     r30,-8(r11)
    539c:	83 eb ff fc 	lwz     r31,-4(r11)
    53a0:	7d 61 5b 78 	mr      r1,r11
    53a4:	4e 80 00 20 	blr

000053a8 <rt_mq_delete>:
    53a8:	94 21 ff e0 	stwu    r1,-32(r1)
    53ac:	7c 08 02 a6 	mflr    r0
    53b0:	90 01 00 24 	stw     r0,36(r1)
    53b4:	93 e1 00 1c 	stw     r31,28(r1)
    53b8:	7c 3f 0b 78 	mr      r31,r1
    53bc:	90 7f 00 08 	stw     r3,8(r31)
    53c0:	81 3f 00 08 	lwz     r9,8(r31)
    53c4:	39 29 00 14 	addi    r9,r9,20
    53c8:	7d 23 4b 78 	mr      r3,r9
    53cc:	4b ff df e5 	bl      33b0 <rt_ipc_list_resume_all>
    53d0:	81 3f 00 08 	lwz     r9,8(r31)
    53d4:	81 29 00 1c 	lwz     r9,28(r9)
    53d8:	7d 23 4b 78 	mr      r3,r9
    53dc:	48 00 2f b5 	bl      8390 <rt_free>
    53e0:	81 3f 00 08 	lwz     r9,8(r31)
    53e4:	7d 23 4b 78 	mr      r3,r9
    53e8:	48 00 36 0d 	bl      89f4 <rt_object_delete>
    53ec:	39 20 00 00 	li      r9,0
    53f0:	7d 23 4b 78 	mr      r3,r9
    53f4:	39 7f 00 20 	addi    r11,r31,32
    53f8:	80 0b 00 04 	lwz     r0,4(r11)
    53fc:	7c 08 03 a6 	mtlr    r0
    5400:	83 eb ff fc 	lwz     r31,-4(r11)
    5404:	7d 61 5b 78 	mr      r1,r11
    5408:	4e 80 00 20 	blr

0000540c <rt_mq_send>:
    540c:	94 21 ff d0 	stwu    r1,-48(r1)
    5410:	7c 08 02 a6 	mflr    r0
    5414:	90 01 00 34 	stw     r0,52(r1)
    5418:	93 c1 00 28 	stw     r30,40(r1)
    541c:	93 e1 00 2c 	stw     r31,44(r1)
    5420:	7c 3f 0b 78 	mr      r31,r1
    5424:	90 7f 00 18 	stw     r3,24(r31)
    5428:	90 9f 00 1c 	stw     r4,28(r31)
    542c:	90 bf 00 20 	stw     r5,32(r31)
    5430:	81 3f 00 18 	lwz     r9,24(r31)
    5434:	a1 29 00 20 	lhz     r9,32(r9)
    5438:	55 29 04 3e 	clrlwi  r9,r9,16
    543c:	7d 2a 4b 78 	mr      r10,r9
    5440:	81 3f 00 20 	lwz     r9,32(r31)
    5444:	7f 8a 48 40 	cmplw   cr7,r10,r9
    5448:	40 9c 00 0c 	bge     cr7,5454 <rt_mq_send+0x48>
    544c:	39 20 ff ff 	li      r9,-1
    5450:	48 00 01 68 	b       55b8 <rt_mq_send+0x1ac>
    5454:	3d 20 00 02 	lis     r9,2
    5458:	81 29 bc 08 	lwz     r9,-17400(r9)
    545c:	2f 89 00 00 	cmpwi   cr7,r9,0
    5460:	41 9e 00 1c 	beq     cr7,547c <rt_mq_send+0x70>
    5464:	3d 20 00 02 	lis     r9,2
    5468:	81 29 bc 08 	lwz     r9,-17400(r9)
    546c:	81 5f 00 18 	lwz     r10,24(r31)
    5470:	7d 43 53 78 	mr      r3,r10
    5474:	7d 29 03 a6 	mtctr   r9
    5478:	4e 80 04 21 	bctrl
    547c:	48 00 6c 1d 	bl      c098 <rt_hw_interrupt_disable>
    5480:	7c 69 1b 78 	mr      r9,r3
    5484:	7d 3e 4b 78 	mr      r30,r9
    5488:	81 3f 00 18 	lwz     r9,24(r31)
    548c:	81 29 00 30 	lwz     r9,48(r9)
    5490:	91 3f 00 08 	stw     r9,8(r31)
    5494:	81 3f 00 08 	lwz     r9,8(r31)
    5498:	2f 89 00 00 	cmpwi   cr7,r9,0
    549c:	40 9e 00 18 	bne     cr7,54b4 <rt_mq_send+0xa8>
    54a0:	7f c9 f3 78 	mr      r9,r30
    54a4:	7d 23 4b 78 	mr      r3,r9
    54a8:	48 00 6c 09 	bl      c0b0 <rt_hw_interrupt_enable>
    54ac:	39 20 ff fd 	li      r9,-3
    54b0:	48 00 01 08 	b       55b8 <rt_mq_send+0x1ac>
    54b4:	81 3f 00 08 	lwz     r9,8(r31)
    54b8:	81 49 00 00 	lwz     r10,0(r9)
    54bc:	81 3f 00 18 	lwz     r9,24(r31)
    54c0:	91 49 00 30 	stw     r10,48(r9)
    54c4:	7f c9 f3 78 	mr      r9,r30
    54c8:	7d 23 4b 78 	mr      r3,r9
    54cc:	48 00 6b e5 	bl      c0b0 <rt_hw_interrupt_enable>
    54d0:	81 3f 00 08 	lwz     r9,8(r31)
    54d4:	39 40 00 00 	li      r10,0
    54d8:	91 49 00 00 	stw     r10,0(r9)
    54dc:	81 3f 00 08 	lwz     r9,8(r31)
    54e0:	39 29 00 04 	addi    r9,r9,4
    54e4:	7d 23 4b 78 	mr      r3,r9
    54e8:	80 9f 00 1c 	lwz     r4,28(r31)
    54ec:	80 bf 00 20 	lwz     r5,32(r31)
    54f0:	48 00 09 31 	bl      5e20 <rt_memcpy>
    54f4:	48 00 6b a5 	bl      c098 <rt_hw_interrupt_disable>
    54f8:	7c 69 1b 78 	mr      r9,r3
    54fc:	7d 3e 4b 78 	mr      r30,r9
    5500:	81 3f 00 18 	lwz     r9,24(r31)
    5504:	81 29 00 2c 	lwz     r9,44(r9)
    5508:	2f 89 00 00 	cmpwi   cr7,r9,0
    550c:	41 9e 00 14 	beq     cr7,5520 <rt_mq_send+0x114>
    5510:	81 3f 00 18 	lwz     r9,24(r31)
    5514:	81 29 00 2c 	lwz     r9,44(r9)
    5518:	81 5f 00 08 	lwz     r10,8(r31)
    551c:	91 49 00 00 	stw     r10,0(r9)
    5520:	81 3f 00 18 	lwz     r9,24(r31)
    5524:	81 5f 00 08 	lwz     r10,8(r31)
    5528:	91 49 00 2c 	stw     r10,44(r9)
    552c:	81 3f 00 18 	lwz     r9,24(r31)
    5530:	81 29 00 28 	lwz     r9,40(r9)
    5534:	2f 89 00 00 	cmpwi   cr7,r9,0
    5538:	40 9e 00 10 	bne     cr7,5548 <rt_mq_send+0x13c>
    553c:	81 3f 00 18 	lwz     r9,24(r31)
    5540:	81 5f 00 08 	lwz     r10,8(r31)
    5544:	91 49 00 28 	stw     r10,40(r9)
    5548:	81 3f 00 18 	lwz     r9,24(r31)
    554c:	a1 29 00 24 	lhz     r9,36(r9)
    5550:	55 29 04 3e 	clrlwi  r9,r9,16
    5554:	39 29 00 01 	addi    r9,r9,1
    5558:	55 2a 04 3e 	clrlwi  r10,r9,16
    555c:	81 3f 00 18 	lwz     r9,24(r31)
    5560:	b1 49 00 24 	sth     r10,36(r9)
    5564:	81 3f 00 18 	lwz     r9,24(r31)
    5568:	39 29 00 14 	addi    r9,r9,20
    556c:	7d 23 4b 78 	mr      r3,r9
    5570:	4b ff dc 45 	bl      31b4 <rt_list_isempty>
    5574:	7c 69 1b 78 	mr      r9,r3
    5578:	2f 89 00 00 	cmpwi   cr7,r9,0
    557c:	40 9e 00 2c 	bne     cr7,55a8 <rt_mq_send+0x19c>
    5580:	81 3f 00 18 	lwz     r9,24(r31)
    5584:	39 29 00 14 	addi    r9,r9,20
    5588:	7d 23 4b 78 	mr      r3,r9
    558c:	4b ff dd d5 	bl      3360 <rt_ipc_list_resume>
    5590:	7f c9 f3 78 	mr      r9,r30
    5594:	7d 23 4b 78 	mr      r3,r9
    5598:	48 00 6b 19 	bl      c0b0 <rt_hw_interrupt_enable>
    559c:	48 00 38 a9 	bl      8e44 <rt_schedule>
    55a0:	39 20 00 00 	li      r9,0
    55a4:	48 00 00 14 	b       55b8 <rt_mq_send+0x1ac>
    55a8:	7f c9 f3 78 	mr      r9,r30
    55ac:	7d 23 4b 78 	mr      r3,r9
    55b0:	48 00 6b 01 	bl      c0b0 <rt_hw_interrupt_enable>
    55b4:	39 20 00 00 	li      r9,0
    55b8:	7d 23 4b 78 	mr      r3,r9
    55bc:	39 7f 00 30 	addi    r11,r31,48
    55c0:	80 0b 00 04 	lwz     r0,4(r11)
    55c4:	7c 08 03 a6 	mtlr    r0
    55c8:	83 cb ff f8 	lwz     r30,-8(r11)
    55cc:	83 eb ff fc 	lwz     r31,-4(r11)
    55d0:	7d 61 5b 78 	mr      r1,r11
    55d4:	4e 80 00 20 	blr

000055d8 <rt_mq_urgent>:
    55d8:	94 21 ff d0 	stwu    r1,-48(r1)
    55dc:	7c 08 02 a6 	mflr    r0
    55e0:	90 01 00 34 	stw     r0,52(r1)
    55e4:	93 c1 00 28 	stw     r30,40(r1)
    55e8:	93 e1 00 2c 	stw     r31,44(r1)
    55ec:	7c 3f 0b 78 	mr      r31,r1
    55f0:	90 7f 00 18 	stw     r3,24(r31)
    55f4:	90 9f 00 1c 	stw     r4,28(r31)
    55f8:	90 bf 00 20 	stw     r5,32(r31)
    55fc:	81 3f 00 18 	lwz     r9,24(r31)
    5600:	a1 29 00 20 	lhz     r9,32(r9)
    5604:	55 29 04 3e 	clrlwi  r9,r9,16
    5608:	7d 2a 4b 78 	mr      r10,r9
    560c:	81 3f 00 20 	lwz     r9,32(r31)
    5610:	7f 8a 48 40 	cmplw   cr7,r10,r9
    5614:	40 9c 00 0c 	bge     cr7,5620 <rt_mq_urgent+0x48>
    5618:	39 20 ff ff 	li      r9,-1
    561c:	48 00 01 4c 	b       5768 <rt_mq_urgent+0x190>
    5620:	3d 20 00 02 	lis     r9,2
    5624:	81 29 bc 08 	lwz     r9,-17400(r9)
    5628:	2f 89 00 00 	cmpwi   cr7,r9,0
    562c:	41 9e 00 1c 	beq     cr7,5648 <rt_mq_urgent+0x70>
    5630:	3d 20 00 02 	lis     r9,2
    5634:	81 29 bc 08 	lwz     r9,-17400(r9)
    5638:	81 5f 00 18 	lwz     r10,24(r31)
    563c:	7d 43 53 78 	mr      r3,r10
    5640:	7d 29 03 a6 	mtctr   r9
    5644:	4e 80 04 21 	bctrl
    5648:	48 00 6a 51 	bl      c098 <rt_hw_interrupt_disable>
    564c:	7c 69 1b 78 	mr      r9,r3
    5650:	7d 3e 4b 78 	mr      r30,r9
    5654:	81 3f 00 18 	lwz     r9,24(r31)
    5658:	81 29 00 30 	lwz     r9,48(r9)
    565c:	91 3f 00 08 	stw     r9,8(r31)
    5660:	81 3f 00 08 	lwz     r9,8(r31)
    5664:	2f 89 00 00 	cmpwi   cr7,r9,0
    5668:	40 9e 00 18 	bne     cr7,5680 <rt_mq_urgent+0xa8>
    566c:	7f c9 f3 78 	mr      r9,r30
    5670:	7d 23 4b 78 	mr      r3,r9
    5674:	48 00 6a 3d 	bl      c0b0 <rt_hw_interrupt_enable>
    5678:	39 20 ff fd 	li      r9,-3
    567c:	48 00 00 ec 	b       5768 <rt_mq_urgent+0x190>
    5680:	81 3f 00 08 	lwz     r9,8(r31)
    5684:	81 49 00 00 	lwz     r10,0(r9)
    5688:	81 3f 00 18 	lwz     r9,24(r31)
    568c:	91 49 00 30 	stw     r10,48(r9)
    5690:	7f c9 f3 78 	mr      r9,r30
    5694:	7d 23 4b 78 	mr      r3,r9
    5698:	48 00 6a 19 	bl      c0b0 <rt_hw_interrupt_enable>
    569c:	81 3f 00 08 	lwz     r9,8(r31)
    56a0:	39 29 00 04 	addi    r9,r9,4
    56a4:	7d 23 4b 78 	mr      r3,r9
    56a8:	80 9f 00 1c 	lwz     r4,28(r31)
    56ac:	80 bf 00 20 	lwz     r5,32(r31)
    56b0:	48 00 07 71 	bl      5e20 <rt_memcpy>
    56b4:	48 00 69 e5 	bl      c098 <rt_hw_interrupt_disable>
    56b8:	7c 69 1b 78 	mr      r9,r3
    56bc:	7d 3e 4b 78 	mr      r30,r9
    56c0:	81 3f 00 18 	lwz     r9,24(r31)
    56c4:	81 49 00 28 	lwz     r10,40(r9)
    56c8:	81 3f 00 08 	lwz     r9,8(r31)
    56cc:	91 49 00 00 	stw     r10,0(r9)
    56d0:	81 3f 00 18 	lwz     r9,24(r31)
    56d4:	81 5f 00 08 	lwz     r10,8(r31)
    56d8:	91 49 00 28 	stw     r10,40(r9)
    56dc:	81 3f 00 18 	lwz     r9,24(r31)
    56e0:	81 29 00 2c 	lwz     r9,44(r9)
    56e4:	2f 89 00 00 	cmpwi   cr7,r9,0
    56e8:	40 9e 00 10 	bne     cr7,56f8 <rt_mq_urgent+0x120>
    56ec:	81 3f 00 18 	lwz     r9,24(r31)
    56f0:	81 5f 00 08 	lwz     r10,8(r31)
    56f4:	91 49 00 2c 	stw     r10,44(r9)
    56f8:	81 3f 00 18 	lwz     r9,24(r31)
    56fc:	a1 29 00 24 	lhz     r9,36(r9)
    5700:	55 29 04 3e 	clrlwi  r9,r9,16
    5704:	39 29 00 01 	addi    r9,r9,1
    5708:	55 2a 04 3e 	clrlwi  r10,r9,16
    570c:	81 3f 00 18 	lwz     r9,24(r31)
    5710:	b1 49 00 24 	sth     r10,36(r9)
    5714:	81 3f 00 18 	lwz     r9,24(r31)
    5718:	39 29 00 14 	addi    r9,r9,20
    571c:	7d 23 4b 78 	mr      r3,r9
    5720:	4b ff da 95 	bl      31b4 <rt_list_isempty>
    5724:	7c 69 1b 78 	mr      r9,r3
    5728:	2f 89 00 00 	cmpwi   cr7,r9,0
    572c:	40 9e 00 2c 	bne     cr7,5758 <rt_mq_urgent+0x180>
    5730:	81 3f 00 18 	lwz     r9,24(r31)
    5734:	39 29 00 14 	addi    r9,r9,20
    5738:	7d 23 4b 78 	mr      r3,r9
    573c:	4b ff dc 25 	bl      3360 <rt_ipc_list_resume>
    5740:	7f c9 f3 78 	mr      r9,r30
    5744:	7d 23 4b 78 	mr      r3,r9
    5748:	48 00 69 69 	bl      c0b0 <rt_hw_interrupt_enable>
    574c:	48 00 36 f9 	bl      8e44 <rt_schedule>
    5750:	39 20 00 00 	li      r9,0
    5754:	48 00 00 14 	b       5768 <rt_mq_urgent+0x190>
    5758:	7f c9 f3 78 	mr      r9,r30
    575c:	7d 23 4b 78 	mr      r3,r9
    5760:	48 00 69 51 	bl      c0b0 <rt_hw_interrupt_enable>
    5764:	39 20 00 00 	li      r9,0
    5768:	7d 23 4b 78 	mr      r3,r9
    576c:	39 7f 00 30 	addi    r11,r31,48
    5770:	80 0b 00 04 	lwz     r0,4(r11)
    5774:	7c 08 03 a6 	mtlr    r0
    5778:	83 cb ff f8 	lwz     r30,-8(r11)
    577c:	83 eb ff fc 	lwz     r31,-4(r11)
    5780:	7d 61 5b 78 	mr      r1,r11
    5784:	4e 80 00 20 	blr

00005788 <rt_mq_recv>:
    5788:	94 21 ff d0 	stwu    r1,-48(r1)
    578c:	7c 08 02 a6 	mflr    r0
    5790:	90 01 00 34 	stw     r0,52(r1)
    5794:	93 c1 00 28 	stw     r30,40(r1)
    5798:	93 e1 00 2c 	stw     r31,44(r1)
    579c:	7c 3f 0b 78 	mr      r31,r1
    57a0:	90 7f 00 18 	stw     r3,24(r31)
    57a4:	90 9f 00 1c 	stw     r4,28(r31)
    57a8:	90 bf 00 20 	stw     r5,32(r31)
    57ac:	90 df 00 24 	stw     r6,36(r31)
    57b0:	39 20 00 00 	li      r9,0
    57b4:	91 3f 00 08 	stw     r9,8(r31)
    57b8:	48 00 3e 89 	bl      9640 <rt_thread_self>
    57bc:	90 7f 00 0c 	stw     r3,12(r31)
    57c0:	3d 20 00 02 	lis     r9,2
    57c4:	81 29 bc 10 	lwz     r9,-17392(r9)
    57c8:	2f 89 00 00 	cmpwi   cr7,r9,0
    57cc:	41 9e 00 1c 	beq     cr7,57e8 <rt_mq_recv+0x60>
    57d0:	3d 20 00 02 	lis     r9,2
    57d4:	81 29 bc 10 	lwz     r9,-17392(r9)
    57d8:	81 5f 00 18 	lwz     r10,24(r31)
    57dc:	7d 43 53 78 	mr      r3,r10
    57e0:	7d 29 03 a6 	mtctr   r9
    57e4:	4e 80 04 21 	bctrl
    57e8:	48 00 68 b1 	bl      c098 <rt_hw_interrupt_disable>
    57ec:	7c 69 1b 78 	mr      r9,r3
    57f0:	7d 3e 4b 78 	mr      r30,r9
    57f4:	81 3f 00 18 	lwz     r9,24(r31)
    57f8:	a1 29 00 24 	lhz     r9,36(r9)
    57fc:	55 29 04 3e 	clrlwi  r9,r9,16
    5800:	2f 89 00 00 	cmpwi   cr7,r9,0
    5804:	40 9e 00 24 	bne     cr7,5828 <rt_mq_recv+0xa0>
    5808:	81 3f 00 24 	lwz     r9,36(r31)
    580c:	2f 89 00 00 	cmpwi   cr7,r9,0
    5810:	40 9e 00 18 	bne     cr7,5828 <rt_mq_recv+0xa0>
    5814:	7f c9 f3 78 	mr      r9,r30
    5818:	7d 23 4b 78 	mr      r3,r9
    581c:	48 00 68 95 	bl      c0b0 <rt_hw_interrupt_enable>
    5820:	39 20 ff fe 	li      r9,-2
    5824:	48 00 02 30 	b       5a54 <rt_mq_recv+0x2cc>
    5828:	48 00 01 20 	b       5948 <rt_mq_recv+0x1c0>
    582c:	81 3f 00 0c 	lwz     r9,12(r31)
    5830:	39 40 00 00 	li      r10,0
    5834:	91 49 00 30 	stw     r10,48(r9)
    5838:	81 3f 00 24 	lwz     r9,36(r31)
    583c:	2f 89 00 00 	cmpwi   cr7,r9,0
    5840:	40 9e 00 24 	bne     cr7,5864 <rt_mq_recv+0xdc>
    5844:	7f c9 f3 78 	mr      r9,r30
    5848:	7d 23 4b 78 	mr      r3,r9
    584c:	48 00 68 65 	bl      c0b0 <rt_hw_interrupt_enable>
    5850:	81 3f 00 0c 	lwz     r9,12(r31)
    5854:	39 40 ff fe 	li      r10,-2
    5858:	91 49 00 30 	stw     r10,48(r9)
    585c:	39 20 ff fe 	li      r9,-2
    5860:	48 00 01 f4 	b       5a54 <rt_mq_recv+0x2cc>
    5864:	81 3f 00 18 	lwz     r9,24(r31)
    5868:	39 49 00 14 	addi    r10,r9,20
    586c:	81 3f 00 18 	lwz     r9,24(r31)
    5870:	89 29 00 09 	lbz     r9,9(r9)
    5874:	55 29 06 3e 	clrlwi  r9,r9,24
    5878:	7d 43 53 78 	mr      r3,r10
    587c:	80 9f 00 0c 	lwz     r4,12(r31)
    5880:	7d 25 4b 78 	mr      r5,r9
    5884:	4b ff d9 b9 	bl      323c <rt_ipc_list_suspend>
    5888:	81 3f 00 24 	lwz     r9,36(r31)
    588c:	2f 89 00 00 	cmpwi   cr7,r9,0
    5890:	40 9d 00 38 	ble     cr7,58c8 <rt_mq_recv+0x140>
    5894:	4b ff cd 7d 	bl      2610 <rt_tick_get>
    5898:	90 7f 00 08 	stw     r3,8(r31)
    589c:	81 3f 00 0c 	lwz     r9,12(r31)
    58a0:	39 49 00 4c 	addi    r10,r9,76
    58a4:	39 3f 00 24 	addi    r9,r31,36
    58a8:	7d 43 53 78 	mr      r3,r10
    58ac:	38 80 00 00 	li      r4,0
    58b0:	7d 25 4b 78 	mr      r5,r9
    58b4:	48 00 4e 59 	bl      a70c <rt_timer_control>
    58b8:	81 3f 00 0c 	lwz     r9,12(r31)
    58bc:	39 29 00 4c 	addi    r9,r9,76
    58c0:	7d 23 4b 78 	mr      r3,r9
    58c4:	48 00 4a 7d 	bl      a340 <rt_timer_start>
    58c8:	7f c9 f3 78 	mr      r9,r30
    58cc:	7d 23 4b 78 	mr      r3,r9
    58d0:	48 00 67 e1 	bl      c0b0 <rt_hw_interrupt_enable>
    58d4:	48 00 35 71 	bl      8e44 <rt_schedule>
    58d8:	81 3f 00 0c 	lwz     r9,12(r31)
    58dc:	81 29 00 30 	lwz     r9,48(r9)
    58e0:	2f 89 00 00 	cmpwi   cr7,r9,0
    58e4:	41 9e 00 10 	beq     cr7,58f4 <rt_mq_recv+0x16c>
    58e8:	81 3f 00 0c 	lwz     r9,12(r31)
    58ec:	81 29 00 30 	lwz     r9,48(r9)
    58f0:	48 00 01 64 	b       5a54 <rt_mq_recv+0x2cc>
    58f4:	48 00 67 a5 	bl      c098 <rt_hw_interrupt_disable>
    58f8:	7c 69 1b 78 	mr      r9,r3
    58fc:	7d 3e 4b 78 	mr      r30,r9
    5900:	81 3f 00 24 	lwz     r9,36(r31)
    5904:	2f 89 00 00 	cmpwi   cr7,r9,0
    5908:	40 9d 00 40 	ble     cr7,5948 <rt_mq_recv+0x1c0>
    590c:	4b ff cd 05 	bl      2610 <rt_tick_get>
    5910:	7c 6a 1b 78 	mr      r10,r3
    5914:	81 3f 00 08 	lwz     r9,8(r31)
    5918:	7d 29 50 50 	subf    r9,r9,r10
    591c:	91 3f 00 08 	stw     r9,8(r31)
    5920:	81 3f 00 24 	lwz     r9,36(r31)
    5924:	7d 2a 4b 78 	mr      r10,r9
    5928:	81 3f 00 08 	lwz     r9,8(r31)
    592c:	7d 29 50 50 	subf    r9,r9,r10
    5930:	91 3f 00 24 	stw     r9,36(r31)
    5934:	81 3f 00 24 	lwz     r9,36(r31)
    5938:	2f 89 00 00 	cmpwi   cr7,r9,0
    593c:	40 9c 00 0c 	bge     cr7,5948 <rt_mq_recv+0x1c0>
    5940:	39 20 00 00 	li      r9,0
    5944:	91 3f 00 24 	stw     r9,36(r31)
    5948:	81 3f 00 18 	lwz     r9,24(r31)
    594c:	a1 29 00 24 	lhz     r9,36(r9)
    5950:	55 29 04 3e 	clrlwi  r9,r9,16
    5954:	2f 89 00 00 	cmpwi   cr7,r9,0
    5958:	41 9e fe d4 	beq     cr7,582c <rt_mq_recv+0xa4>
    595c:	81 3f 00 18 	lwz     r9,24(r31)
    5960:	81 29 00 28 	lwz     r9,40(r9)
    5964:	91 3f 00 10 	stw     r9,16(r31)
    5968:	81 3f 00 10 	lwz     r9,16(r31)
    596c:	81 49 00 00 	lwz     r10,0(r9)
    5970:	81 3f 00 18 	lwz     r9,24(r31)
    5974:	91 49 00 28 	stw     r10,40(r9)
    5978:	81 3f 00 18 	lwz     r9,24(r31)
    597c:	81 49 00 2c 	lwz     r10,44(r9)
    5980:	81 3f 00 10 	lwz     r9,16(r31)
    5984:	7f 8a 48 00 	cmpw    cr7,r10,r9
    5988:	40 9e 00 10 	bne     cr7,5998 <rt_mq_recv+0x210>
    598c:	81 3f 00 18 	lwz     r9,24(r31)
    5990:	39 40 00 00 	li      r10,0
    5994:	91 49 00 2c 	stw     r10,44(r9)
    5998:	81 3f 00 18 	lwz     r9,24(r31)
    599c:	a1 29 00 24 	lhz     r9,36(r9)
    59a0:	55 29 04 3e 	clrlwi  r9,r9,16
    59a4:	39 29 ff ff 	addi    r9,r9,-1
    59a8:	55 2a 04 3e 	clrlwi  r10,r9,16
    59ac:	81 3f 00 18 	lwz     r9,24(r31)
    59b0:	b1 49 00 24 	sth     r10,36(r9)
    59b4:	7f c9 f3 78 	mr      r9,r30
    59b8:	7d 23 4b 78 	mr      r3,r9
    59bc:	48 00 66 f5 	bl      c0b0 <rt_hw_interrupt_enable>
    59c0:	81 3f 00 10 	lwz     r9,16(r31)
    59c4:	39 09 00 04 	addi    r8,r9,4
    59c8:	81 3f 00 18 	lwz     r9,24(r31)
    59cc:	a1 29 00 20 	lhz     r9,32(r9)
    59d0:	55 29 04 3e 	clrlwi  r9,r9,16
    59d4:	81 5f 00 20 	lwz     r10,32(r31)
    59d8:	7f 89 50 40 	cmplw   cr7,r9,r10
    59dc:	40 9d 00 08 	ble     cr7,59e4 <rt_mq_recv+0x25c>
    59e0:	7d 49 53 78 	mr      r9,r10
    59e4:	80 7f 00 1c 	lwz     r3,28(r31)
    59e8:	7d 04 43 78 	mr      r4,r8
    59ec:	7d 25 4b 78 	mr      r5,r9
    59f0:	48 00 04 31 	bl      5e20 <rt_memcpy>
    59f4:	48 00 66 a5 	bl      c098 <rt_hw_interrupt_disable>
    59f8:	7c 69 1b 78 	mr      r9,r3
    59fc:	7d 3e 4b 78 	mr      r30,r9
    5a00:	81 3f 00 18 	lwz     r9,24(r31)
    5a04:	81 49 00 30 	lwz     r10,48(r9)
    5a08:	81 3f 00 10 	lwz     r9,16(r31)
    5a0c:	91 49 00 00 	stw     r10,0(r9)
    5a10:	81 3f 00 18 	lwz     r9,24(r31)
    5a14:	81 5f 00 10 	lwz     r10,16(r31)
    5a18:	91 49 00 30 	stw     r10,48(r9)
    5a1c:	7f c9 f3 78 	mr      r9,r30
    5a20:	7d 23 4b 78 	mr      r3,r9
    5a24:	48 00 66 8d 	bl      c0b0 <rt_hw_interrupt_enable>
    5a28:	3d 20 00 02 	lis     r9,2
    5a2c:	81 29 bc 0c 	lwz     r9,-17396(r9)
    5a30:	2f 89 00 00 	cmpwi   cr7,r9,0
    5a34:	41 9e 00 1c 	beq     cr7,5a50 <rt_mq_recv+0x2c8>
    5a38:	3d 20 00 02 	lis     r9,2
    5a3c:	81 29 bc 0c 	lwz     r9,-17396(r9)
    5a40:	81 5f 00 18 	lwz     r10,24(r31)
    5a44:	7d 43 53 78 	mr      r3,r10
    5a48:	7d 29 03 a6 	mtctr   r9
    5a4c:	4e 80 04 21 	bctrl
    5a50:	39 20 00 00 	li      r9,0
    5a54:	7d 23 4b 78 	mr      r3,r9
    5a58:	39 7f 00 30 	addi    r11,r31,48
    5a5c:	80 0b 00 04 	lwz     r0,4(r11)
    5a60:	7c 08 03 a6 	mtlr    r0
    5a64:	83 cb ff f8 	lwz     r30,-8(r11)
    5a68:	83 eb ff fc 	lwz     r31,-4(r11)
    5a6c:	7d 61 5b 78 	mr      r1,r11
    5a70:	4e 80 00 20 	blr

00005a74 <rt_mq_control>:
    5a74:	94 21 ff d0 	stwu    r1,-48(r1)
    5a78:	7c 08 02 a6 	mflr    r0
    5a7c:	90 01 00 34 	stw     r0,52(r1)
    5a80:	93 e1 00 2c 	stw     r31,44(r1)
    5a84:	7c 3f 0b 78 	mr      r31,r1
    5a88:	90 7f 00 18 	stw     r3,24(r31)
    5a8c:	7c 89 23 78 	mr      r9,r4
    5a90:	90 bf 00 20 	stw     r5,32(r31)
    5a94:	99 3f 00 1c 	stb     r9,28(r31)
    5a98:	89 3f 00 1c 	lbz     r9,28(r31)
    5a9c:	55 29 06 3e 	clrlwi  r9,r9,24
    5aa0:	2f 89 00 01 	cmpwi   cr7,r9,1
    5aa4:	40 9e 00 b0 	bne     cr7,5b54 <rt_mq_control+0xe0>
    5aa8:	48 00 65 f1 	bl      c098 <rt_hw_interrupt_disable>
    5aac:	7c 69 1b 78 	mr      r9,r3
    5ab0:	91 3f 00 08 	stw     r9,8(r31)
    5ab4:	81 3f 00 18 	lwz     r9,24(r31)
    5ab8:	39 29 00 14 	addi    r9,r9,20
    5abc:	7d 23 4b 78 	mr      r3,r9
    5ac0:	4b ff d8 f1 	bl      33b0 <rt_ipc_list_resume_all>
    5ac4:	48 00 00 5c 	b       5b20 <rt_mq_control+0xac>
    5ac8:	81 3f 00 18 	lwz     r9,24(r31)
    5acc:	81 29 00 28 	lwz     r9,40(r9)
    5ad0:	91 3f 00 0c 	stw     r9,12(r31)
    5ad4:	81 3f 00 0c 	lwz     r9,12(r31)
    5ad8:	81 49 00 00 	lwz     r10,0(r9)
    5adc:	81 3f 00 18 	lwz     r9,24(r31)
    5ae0:	91 49 00 28 	stw     r10,40(r9)
    5ae4:	81 3f 00 18 	lwz     r9,24(r31)
    5ae8:	81 49 00 2c 	lwz     r10,44(r9)
    5aec:	81 3f 00 0c 	lwz     r9,12(r31)
    5af0:	7f 8a 48 00 	cmpw    cr7,r10,r9
    5af4:	40 9e 00 10 	bne     cr7,5b04 <rt_mq_control+0x90>
    5af8:	81 3f 00 18 	lwz     r9,24(r31)
    5afc:	39 40 00 00 	li      r10,0
    5b00:	91 49 00 2c 	stw     r10,44(r9)
    5b04:	81 3f 00 18 	lwz     r9,24(r31)
    5b08:	81 49 00 30 	lwz     r10,48(r9)
    5b0c:	81 3f 00 0c 	lwz     r9,12(r31)
    5b10:	91 49 00 00 	stw     r10,0(r9)
    5b14:	81 3f 00 18 	lwz     r9,24(r31)
    5b18:	81 5f 00 0c 	lwz     r10,12(r31)
    5b1c:	91 49 00 30 	stw     r10,48(r9)
    5b20:	81 3f 00 18 	lwz     r9,24(r31)
    5b24:	81 29 00 28 	lwz     r9,40(r9)
    5b28:	2f 89 00 00 	cmpwi   cr7,r9,0
    5b2c:	40 9e ff 9c 	bne     cr7,5ac8 <rt_mq_control+0x54>
    5b30:	81 3f 00 18 	lwz     r9,24(r31)
    5b34:	39 40 00 00 	li      r10,0
    5b38:	b1 49 00 24 	sth     r10,36(r9)
    5b3c:	81 3f 00 08 	lwz     r9,8(r31)
    5b40:	7d 23 4b 78 	mr      r3,r9
    5b44:	48 00 65 6d 	bl      c0b0 <rt_hw_interrupt_enable>
    5b48:	48 00 32 fd 	bl      8e44 <rt_schedule>
    5b4c:	39 20 00 00 	li      r9,0
    5b50:	48 00 00 08 	b       5b58 <rt_mq_control+0xe4>
    5b54:	39 20 ff ff 	li      r9,-1
    5b58:	7d 23 4b 78 	mr      r3,r9
    5b5c:	39 7f 00 30 	addi    r11,r31,48
    5b60:	80 0b 00 04 	lwz     r0,4(r11)
    5b64:	7c 08 03 a6 	mtlr    r0
    5b68:	83 eb ff fc 	lwz     r31,-4(r11)
    5b6c:	7d 61 5b 78 	mr      r1,r11
    5b70:	4e 80 00 20 	blr

00005b74 <rt_interrupt_enter>:
    5b74:	94 21 ff e0 	stwu    r1,-32(r1)
    5b78:	7c 08 02 a6 	mflr    r0
    5b7c:	90 01 00 24 	stw     r0,36(r1)
    5b80:	93 e1 00 1c 	stw     r31,28(r1)
    5b84:	7c 3f 0b 78 	mr      r31,r1
    5b88:	48 00 65 11 	bl      c098 <rt_hw_interrupt_disable>
    5b8c:	90 7f 00 08 	stw     r3,8(r31)
    5b90:	3d 20 00 02 	lis     r9,2
    5b94:	89 29 bc 04 	lbz     r9,-17404(r9)
    5b98:	55 29 06 3e 	clrlwi  r9,r9,24
    5b9c:	39 29 00 01 	addi    r9,r9,1
    5ba0:	55 2a 06 3e 	clrlwi  r10,r9,24
    5ba4:	3d 20 00 02 	lis     r9,2
    5ba8:	99 49 bc 04 	stb     r10,-17404(r9)
    5bac:	80 7f 00 08 	lwz     r3,8(r31)
    5bb0:	48 00 65 01 	bl      c0b0 <rt_hw_interrupt_enable>
    5bb4:	39 7f 00 20 	addi    r11,r31,32
    5bb8:	80 0b 00 04 	lwz     r0,4(r11)
    5bbc:	7c 08 03 a6 	mtlr    r0
    5bc0:	83 eb ff fc 	lwz     r31,-4(r11)
    5bc4:	7d 61 5b 78 	mr      r1,r11
    5bc8:	4e 80 00 20 	blr

00005bcc <rt_interrupt_leave>:
    5bcc:	94 21 ff e0 	stwu    r1,-32(r1)
    5bd0:	7c 08 02 a6 	mflr    r0
    5bd4:	90 01 00 24 	stw     r0,36(r1)
    5bd8:	93 e1 00 1c 	stw     r31,28(r1)
    5bdc:	7c 3f 0b 78 	mr      r31,r1
    5be0:	48 00 64 b9 	bl      c098 <rt_hw_interrupt_disable>
    5be4:	90 7f 00 08 	stw     r3,8(r31)
    5be8:	3d 20 00 02 	lis     r9,2
    5bec:	89 29 bc 04 	lbz     r9,-17404(r9)
    5bf0:	55 29 06 3e 	clrlwi  r9,r9,24
    5bf4:	39 29 ff ff 	addi    r9,r9,-1
    5bf8:	55 2a 06 3e 	clrlwi  r10,r9,24
    5bfc:	3d 20 00 02 	lis     r9,2
    5c00:	99 49 bc 04 	stb     r10,-17404(r9)
    5c04:	80 7f 00 08 	lwz     r3,8(r31)
    5c08:	48 00 64 a9 	bl      c0b0 <rt_hw_interrupt_enable>
    5c0c:	39 7f 00 20 	addi    r11,r31,32
    5c10:	80 0b 00 04 	lwz     r0,4(r11)
    5c14:	7c 08 03 a6 	mtlr    r0
    5c18:	83 eb ff fc 	lwz     r31,-4(r11)
    5c1c:	7d 61 5b 78 	mr      r1,r11
    5c20:	4e 80 00 20 	blr

00005c24 <rt_interrupt_get_nest>:
    5c24:	94 21 ff f0 	stwu    r1,-16(r1)
    5c28:	93 e1 00 0c 	stw     r31,12(r1)
    5c2c:	7c 3f 0b 78 	mr      r31,r1
    5c30:	3d 20 00 02 	lis     r9,2
    5c34:	89 29 bc 04 	lbz     r9,-17404(r9)
    5c38:	55 29 06 3e 	clrlwi  r9,r9,24
    5c3c:	7d 23 4b 78 	mr      r3,r9
    5c40:	39 7f 00 10 	addi    r11,r31,16
    5c44:	83 eb ff fc 	lwz     r31,-4(r11)
    5c48:	7d 61 5b 78 	mr      r1,r11
    5c4c:	4e 80 00 20 	blr

00005c50 <rt_get_errno>:
    5c50:	94 21 ff e0 	stwu    r1,-32(r1)
    5c54:	7c 08 02 a6 	mflr    r0
    5c58:	90 01 00 24 	stw     r0,36(r1)
    5c5c:	93 e1 00 1c 	stw     r31,28(r1)
    5c60:	7c 3f 0b 78 	mr      r31,r1
    5c64:	4b ff ff c1 	bl      5c24 <rt_interrupt_get_nest>
    5c68:	7c 69 1b 78 	mr      r9,r3
    5c6c:	2f 89 00 00 	cmpwi   cr7,r9,0
    5c70:	41 9e 00 10 	beq     cr7,5c80 <rt_get_errno+0x30>
    5c74:	3d 20 00 02 	lis     r9,2
    5c78:	81 29 c5 6c 	lwz     r9,-14996(r9)
    5c7c:	48 00 00 2c 	b       5ca8 <rt_get_errno+0x58>
    5c80:	48 00 39 c1 	bl      9640 <rt_thread_self>
    5c84:	90 7f 00 08 	stw     r3,8(r31)
    5c88:	81 3f 00 08 	lwz     r9,8(r31)
    5c8c:	2f 89 00 00 	cmpwi   cr7,r9,0
    5c90:	40 9e 00 10 	bne     cr7,5ca0 <rt_get_errno+0x50>
    5c94:	3d 20 00 02 	lis     r9,2
    5c98:	81 29 c5 6c 	lwz     r9,-14996(r9)
    5c9c:	48 00 00 0c 	b       5ca8 <rt_get_errno+0x58>
    5ca0:	81 3f 00 08 	lwz     r9,8(r31)
    5ca4:	81 29 00 30 	lwz     r9,48(r9)
    5ca8:	7d 23 4b 78 	mr      r3,r9
    5cac:	39 7f 00 20 	addi    r11,r31,32
    5cb0:	80 0b 00 04 	lwz     r0,4(r11)
    5cb4:	7c 08 03 a6 	mtlr    r0
    5cb8:	83 eb ff fc 	lwz     r31,-4(r11)
    5cbc:	7d 61 5b 78 	mr      r1,r11
    5cc0:	4e 80 00 20 	blr

00005cc4 <rt_set_errno>:
    5cc4:	94 21 ff d0 	stwu    r1,-48(r1)
    5cc8:	7c 08 02 a6 	mflr    r0
    5ccc:	90 01 00 34 	stw     r0,52(r1)
    5cd0:	93 e1 00 2c 	stw     r31,44(r1)
    5cd4:	7c 3f 0b 78 	mr      r31,r1
    5cd8:	90 7f 00 18 	stw     r3,24(r31)
    5cdc:	4b ff ff 49 	bl      5c24 <rt_interrupt_get_nest>
    5ce0:	7c 69 1b 78 	mr      r9,r3
    5ce4:	2f 89 00 00 	cmpwi   cr7,r9,0
    5ce8:	41 9e 00 14 	beq     cr7,5cfc <rt_set_errno+0x38>
    5cec:	3d 20 00 02 	lis     r9,2
    5cf0:	81 5f 00 18 	lwz     r10,24(r31)
    5cf4:	91 49 c5 6c 	stw     r10,-14996(r9)
    5cf8:	48 00 00 34 	b       5d2c <rt_set_errno+0x68>
    5cfc:	48 00 39 45 	bl      9640 <rt_thread_self>
    5d00:	90 7f 00 08 	stw     r3,8(r31)
    5d04:	81 3f 00 08 	lwz     r9,8(r31)
    5d08:	2f 89 00 00 	cmpwi   cr7,r9,0
    5d0c:	40 9e 00 14 	bne     cr7,5d20 <rt_set_errno+0x5c>
    5d10:	3d 20 00 02 	lis     r9,2
    5d14:	81 5f 00 18 	lwz     r10,24(r31)
    5d18:	91 49 c5 6c 	stw     r10,-14996(r9)
    5d1c:	48 00 00 10 	b       5d2c <rt_set_errno+0x68>
    5d20:	81 3f 00 08 	lwz     r9,8(r31)
    5d24:	81 5f 00 18 	lwz     r10,24(r31)
    5d28:	91 49 00 30 	stw     r10,48(r9)
    5d2c:	39 7f 00 30 	addi    r11,r31,48
    5d30:	80 0b 00 04 	lwz     r0,4(r11)
    5d34:	7c 08 03 a6 	mtlr    r0
    5d38:	83 eb ff fc 	lwz     r31,-4(r11)
    5d3c:	7d 61 5b 78 	mr      r1,r11
    5d40:	4e 80 00 20 	blr

00005d44 <_rt_errno>:
    5d44:	94 21 ff e0 	stwu    r1,-32(r1)
    5d48:	7c 08 02 a6 	mflr    r0
    5d4c:	90 01 00 24 	stw     r0,36(r1)
    5d50:	93 e1 00 1c 	stw     r31,28(r1)
    5d54:	7c 3f 0b 78 	mr      r31,r1
    5d58:	4b ff fe cd 	bl      5c24 <rt_interrupt_get_nest>
    5d5c:	7c 69 1b 78 	mr      r9,r3
    5d60:	2f 89 00 00 	cmpwi   cr7,r9,0
    5d64:	41 9e 00 10 	beq     cr7,5d74 <_rt_errno+0x30>
    5d68:	3d 20 00 02 	lis     r9,2
    5d6c:	39 29 c5 6c 	addi    r9,r9,-14996
    5d70:	48 00 00 2c 	b       5d9c <_rt_errno+0x58>
    5d74:	48 00 38 cd 	bl      9640 <rt_thread_self>
    5d78:	90 7f 00 08 	stw     r3,8(r31)
    5d7c:	81 3f 00 08 	lwz     r9,8(r31)
    5d80:	2f 89 00 00 	cmpwi   cr7,r9,0
    5d84:	41 9e 00 10 	beq     cr7,5d94 <_rt_errno+0x50>
    5d88:	81 3f 00 08 	lwz     r9,8(r31)
    5d8c:	39 29 00 30 	addi    r9,r9,48
    5d90:	48 00 00 0c 	b       5d9c <_rt_errno+0x58>
    5d94:	3d 20 00 02 	lis     r9,2
    5d98:	39 29 c5 6c 	addi    r9,r9,-14996
    5d9c:	7d 23 4b 78 	mr      r3,r9
    5da0:	39 7f 00 20 	addi    r11,r31,32
    5da4:	80 0b 00 04 	lwz     r0,4(r11)
    5da8:	7c 08 03 a6 	mtlr    r0
    5dac:	83 eb ff fc 	lwz     r31,-4(r11)
    5db0:	7d 61 5b 78 	mr      r1,r11
    5db4:	4e 80 00 20 	blr

00005db8 <rt_memset>:
    5db8:	94 21 ff d0 	stwu    r1,-48(r1)
    5dbc:	93 e1 00 2c 	stw     r31,44(r1)
    5dc0:	7c 3f 0b 78 	mr      r31,r1
    5dc4:	90 7f 00 18 	stw     r3,24(r31)
    5dc8:	90 9f 00 1c 	stw     r4,28(r31)
    5dcc:	90 bf 00 20 	stw     r5,32(r31)
    5dd0:	81 3f 00 18 	lwz     r9,24(r31)
    5dd4:	91 3f 00 08 	stw     r9,8(r31)
    5dd8:	48 00 00 1c 	b       5df4 <rt_memset+0x3c>
    5ddc:	81 3f 00 08 	lwz     r9,8(r31)
    5de0:	39 49 00 01 	addi    r10,r9,1
    5de4:	91 5f 00 08 	stw     r10,8(r31)
    5de8:	81 5f 00 1c 	lwz     r10,28(r31)
    5dec:	55 4a 06 3e 	clrlwi  r10,r10,24
    5df0:	99 49 00 00 	stb     r10,0(r9)
    5df4:	81 3f 00 20 	lwz     r9,32(r31)
    5df8:	39 49 ff ff 	addi    r10,r9,-1
    5dfc:	91 5f 00 20 	stw     r10,32(r31)
    5e00:	2f 89 00 00 	cmpwi   cr7,r9,0
    5e04:	40 9e ff d8 	bne     cr7,5ddc <rt_memset+0x24>
    5e08:	81 3f 00 18 	lwz     r9,24(r31)
    5e0c:	7d 23 4b 78 	mr      r3,r9
    5e10:	39 7f 00 30 	addi    r11,r31,48
    5e14:	83 eb ff fc 	lwz     r31,-4(r11)
    5e18:	7d 61 5b 78 	mr      r1,r11
    5e1c:	4e 80 00 20 	blr

00005e20 <rt_memcpy>:
    5e20:	94 21 ff d0 	stwu    r1,-48(r1)
    5e24:	93 e1 00 2c 	stw     r31,44(r1)
    5e28:	7c 3f 0b 78 	mr      r31,r1
    5e2c:	90 7f 00 18 	stw     r3,24(r31)
    5e30:	90 9f 00 1c 	stw     r4,28(r31)
    5e34:	90 bf 00 20 	stw     r5,32(r31)
    5e38:	81 3f 00 18 	lwz     r9,24(r31)
    5e3c:	91 3f 00 08 	stw     r9,8(r31)
    5e40:	81 3f 00 1c 	lwz     r9,28(r31)
    5e44:	91 3f 00 0c 	stw     r9,12(r31)
    5e48:	48 00 00 28 	b       5e70 <rt_memcpy+0x50>
    5e4c:	81 3f 00 08 	lwz     r9,8(r31)
    5e50:	39 49 00 01 	addi    r10,r9,1
    5e54:	91 5f 00 08 	stw     r10,8(r31)
    5e58:	81 5f 00 0c 	lwz     r10,12(r31)
    5e5c:	39 0a 00 01 	addi    r8,r10,1
    5e60:	91 1f 00 0c 	stw     r8,12(r31)
    5e64:	89 4a 00 00 	lbz     r10,0(r10)
    5e68:	55 4a 06 3e 	clrlwi  r10,r10,24
    5e6c:	99 49 00 00 	stb     r10,0(r9)
    5e70:	81 3f 00 20 	lwz     r9,32(r31)
    5e74:	39 49 ff ff 	addi    r10,r9,-1
    5e78:	91 5f 00 20 	stw     r10,32(r31)
    5e7c:	2f 89 00 00 	cmpwi   cr7,r9,0
    5e80:	40 9e ff cc 	bne     cr7,5e4c <rt_memcpy+0x2c>
    5e84:	81 3f 00 18 	lwz     r9,24(r31)
    5e88:	7d 23 4b 78 	mr      r3,r9
    5e8c:	39 7f 00 30 	addi    r11,r31,48
    5e90:	83 eb ff fc 	lwz     r31,-4(r11)
    5e94:	7d 61 5b 78 	mr      r1,r11
    5e98:	4e 80 00 20 	blr

00005e9c <rt_memmove>:
    5e9c:	94 21 ff d0 	stwu    r1,-48(r1)
    5ea0:	93 e1 00 2c 	stw     r31,44(r1)
    5ea4:	7c 3f 0b 78 	mr      r31,r1
    5ea8:	90 7f 00 18 	stw     r3,24(r31)
    5eac:	90 9f 00 1c 	stw     r4,28(r31)
    5eb0:	90 bf 00 20 	stw     r5,32(r31)
    5eb4:	81 3f 00 18 	lwz     r9,24(r31)
    5eb8:	91 3f 00 08 	stw     r9,8(r31)
    5ebc:	81 3f 00 1c 	lwz     r9,28(r31)
    5ec0:	91 3f 00 0c 	stw     r9,12(r31)
    5ec4:	81 5f 00 0c 	lwz     r10,12(r31)
    5ec8:	81 3f 00 08 	lwz     r9,8(r31)
    5ecc:	7f 8a 48 40 	cmplw   cr7,r10,r9
    5ed0:	40 9c 00 84 	bge     cr7,5f54 <rt_memmove+0xb8>
    5ed4:	81 5f 00 0c 	lwz     r10,12(r31)
    5ed8:	81 3f 00 20 	lwz     r9,32(r31)
    5edc:	7d 4a 4a 14 	add     r10,r10,r9
    5ee0:	81 3f 00 08 	lwz     r9,8(r31)
    5ee4:	7f 8a 48 40 	cmplw   cr7,r10,r9
    5ee8:	40 9d 00 6c 	ble     cr7,5f54 <rt_memmove+0xb8>
    5eec:	81 5f 00 08 	lwz     r10,8(r31)
    5ef0:	81 3f 00 20 	lwz     r9,32(r31)
    5ef4:	7d 2a 4a 14 	add     r9,r10,r9
    5ef8:	91 3f 00 08 	stw     r9,8(r31)
    5efc:	81 5f 00 0c 	lwz     r10,12(r31)
    5f00:	81 3f 00 20 	lwz     r9,32(r31)
    5f04:	7d 2a 4a 14 	add     r9,r10,r9
    5f08:	91 3f 00 0c 	stw     r9,12(r31)
    5f0c:	48 00 00 30 	b       5f3c <rt_memmove+0xa0>
    5f10:	81 3f 00 08 	lwz     r9,8(r31)
    5f14:	39 29 ff ff 	addi    r9,r9,-1
    5f18:	91 3f 00 08 	stw     r9,8(r31)
    5f1c:	81 3f 00 0c 	lwz     r9,12(r31)
    5f20:	39 29 ff ff 	addi    r9,r9,-1
    5f24:	91 3f 00 0c 	stw     r9,12(r31)
    5f28:	81 3f 00 0c 	lwz     r9,12(r31)
    5f2c:	89 29 00 00 	lbz     r9,0(r9)
    5f30:	55 2a 06 3e 	clrlwi  r10,r9,24
    5f34:	81 3f 00 08 	lwz     r9,8(r31)
    5f38:	99 49 00 00 	stb     r10,0(r9)
    5f3c:	81 3f 00 20 	lwz     r9,32(r31)
    5f40:	39 49 ff ff 	addi    r10,r9,-1
    5f44:	91 5f 00 20 	stw     r10,32(r31)
    5f48:	2f 89 00 00 	cmpwi   cr7,r9,0
    5f4c:	40 9e ff c4 	bne     cr7,5f10 <rt_memmove+0x74>
    5f50:	48 00 00 40 	b       5f90 <rt_memmove+0xf4>
    5f54:	48 00 00 28 	b       5f7c <rt_memmove+0xe0>
    5f58:	81 3f 00 08 	lwz     r9,8(r31)
    5f5c:	39 49 00 01 	addi    r10,r9,1
    5f60:	91 5f 00 08 	stw     r10,8(r31)
    5f64:	81 5f 00 0c 	lwz     r10,12(r31)
    5f68:	39 0a 00 01 	addi    r8,r10,1
    5f6c:	91 1f 00 0c 	stw     r8,12(r31)
    5f70:	89 4a 00 00 	lbz     r10,0(r10)
    5f74:	55 4a 06 3e 	clrlwi  r10,r10,24
    5f78:	99 49 00 00 	stb     r10,0(r9)
    5f7c:	81 3f 00 20 	lwz     r9,32(r31)
    5f80:	39 49 ff ff 	addi    r10,r9,-1
    5f84:	91 5f 00 20 	stw     r10,32(r31)
    5f88:	2f 89 00 00 	cmpwi   cr7,r9,0
    5f8c:	40 9e ff cc 	bne     cr7,5f58 <rt_memmove+0xbc>
    5f90:	81 3f 00 18 	lwz     r9,24(r31)
    5f94:	7d 23 4b 78 	mr      r3,r9
    5f98:	39 7f 00 30 	addi    r11,r31,48
    5f9c:	83 eb ff fc 	lwz     r31,-4(r11)
    5fa0:	7d 61 5b 78 	mr      r1,r11
    5fa4:	4e 80 00 20 	blr

00005fa8 <rt_memcmp>:
    5fa8:	94 21 ff d0 	stwu    r1,-48(r1)
    5fac:	93 e1 00 2c 	stw     r31,44(r1)
    5fb0:	7c 3f 0b 78 	mr      r31,r1
    5fb4:	90 7f 00 18 	stw     r3,24(r31)
    5fb8:	90 9f 00 1c 	stw     r4,28(r31)
    5fbc:	90 bf 00 20 	stw     r5,32(r31)
    5fc0:	39 20 00 00 	li      r9,0
    5fc4:	91 3f 00 10 	stw     r9,16(r31)
    5fc8:	81 3f 00 18 	lwz     r9,24(r31)
    5fcc:	91 3f 00 08 	stw     r9,8(r31)
    5fd0:	81 3f 00 1c 	lwz     r9,28(r31)
    5fd4:	91 3f 00 0c 	stw     r9,12(r31)
    5fd8:	48 00 00 5c 	b       6034 <rt_memcmp+0x8c>
    5fdc:	81 3f 00 08 	lwz     r9,8(r31)
    5fe0:	89 29 00 00 	lbz     r9,0(r9)
    5fe4:	55 29 06 3e 	clrlwi  r9,r9,24
    5fe8:	7d 2a 4b 78 	mr      r10,r9
    5fec:	81 3f 00 0c 	lwz     r9,12(r31)
    5ff0:	89 29 00 00 	lbz     r9,0(r9)
    5ff4:	55 29 06 3e 	clrlwi  r9,r9,24
    5ff8:	7d 29 50 50 	subf    r9,r9,r10
    5ffc:	91 3f 00 10 	stw     r9,16(r31)
    6000:	81 3f 00 10 	lwz     r9,16(r31)
    6004:	2f 89 00 00 	cmpwi   cr7,r9,0
    6008:	41 9e 00 08 	beq     cr7,6010 <rt_memcmp+0x68>
    600c:	48 00 00 34 	b       6040 <rt_memcmp+0x98>
    6010:	81 3f 00 08 	lwz     r9,8(r31)
    6014:	39 29 00 01 	addi    r9,r9,1
    6018:	91 3f 00 08 	stw     r9,8(r31)
    601c:	81 3f 00 0c 	lwz     r9,12(r31)
    6020:	39 29 00 01 	addi    r9,r9,1
    6024:	91 3f 00 0c 	stw     r9,12(r31)
    6028:	81 3f 00 20 	lwz     r9,32(r31)
    602c:	39 29 ff ff 	addi    r9,r9,-1
    6030:	91 3f 00 20 	stw     r9,32(r31)
    6034:	81 3f 00 20 	lwz     r9,32(r31)
    6038:	2f 89 00 00 	cmpwi   cr7,r9,0
    603c:	40 9e ff a0 	bne     cr7,5fdc <rt_memcmp+0x34>
    6040:	81 3f 00 10 	lwz     r9,16(r31)
    6044:	7d 23 4b 78 	mr      r3,r9
    6048:	39 7f 00 30 	addi    r11,r31,48
    604c:	83 eb ff fc 	lwz     r31,-4(r11)
    6050:	7d 61 5b 78 	mr      r1,r11
    6054:	4e 80 00 20 	blr

00006058 <rt_strstr>:
    6058:	94 21 ff d0 	stwu    r1,-48(r1)
    605c:	7c 08 02 a6 	mflr    r0
    6060:	90 01 00 34 	stw     r0,52(r1)
    6064:	93 e1 00 2c 	stw     r31,44(r1)
    6068:	7c 3f 0b 78 	mr      r31,r1
    606c:	90 7f 00 18 	stw     r3,24(r31)
    6070:	90 9f 00 1c 	stw     r4,28(r31)
    6074:	80 7f 00 1c 	lwz     r3,28(r31)
    6078:	48 00 03 79 	bl      63f0 <rt_strlen>
    607c:	7c 69 1b 78 	mr      r9,r3
    6080:	91 3f 00 0c 	stw     r9,12(r31)
    6084:	81 3f 00 0c 	lwz     r9,12(r31)
    6088:	2f 89 00 00 	cmpwi   cr7,r9,0
    608c:	40 9e 00 0c 	bne     cr7,6098 <rt_strstr+0x40>
    6090:	81 3f 00 18 	lwz     r9,24(r31)
    6094:	48 00 00 6c 	b       6100 <rt_strstr+0xa8>
    6098:	80 7f 00 18 	lwz     r3,24(r31)
    609c:	48 00 03 55 	bl      63f0 <rt_strlen>
    60a0:	7c 69 1b 78 	mr      r9,r3
    60a4:	91 3f 00 08 	stw     r9,8(r31)
    60a8:	48 00 00 44 	b       60ec <rt_strstr+0x94>
    60ac:	81 3f 00 08 	lwz     r9,8(r31)
    60b0:	39 29 ff ff 	addi    r9,r9,-1
    60b4:	91 3f 00 08 	stw     r9,8(r31)
    60b8:	81 3f 00 0c 	lwz     r9,12(r31)
    60bc:	80 7f 00 18 	lwz     r3,24(r31)
    60c0:	80 9f 00 1c 	lwz     r4,28(r31)
    60c4:	7d 25 4b 78 	mr      r5,r9
    60c8:	4b ff fe e1 	bl      5fa8 <rt_memcmp>
    60cc:	7c 69 1b 78 	mr      r9,r3
    60d0:	2f 89 00 00 	cmpwi   cr7,r9,0
    60d4:	40 9e 00 0c 	bne     cr7,60e0 <rt_strstr+0x88>
    60d8:	81 3f 00 18 	lwz     r9,24(r31)
    60dc:	48 00 00 24 	b       6100 <rt_strstr+0xa8>
    60e0:	81 3f 00 18 	lwz     r9,24(r31)
    60e4:	39 29 00 01 	addi    r9,r9,1
    60e8:	91 3f 00 18 	stw     r9,24(r31)
    60ec:	81 5f 00 08 	lwz     r10,8(r31)
    60f0:	81 3f 00 0c 	lwz     r9,12(r31)
    60f4:	7f 8a 48 00 	cmpw    cr7,r10,r9
    60f8:	40 9c ff b4 	bge     cr7,60ac <rt_strstr+0x54>
    60fc:	39 20 00 00 	li      r9,0
    6100:	7d 23 4b 78 	mr      r3,r9
    6104:	39 7f 00 30 	addi    r11,r31,48
    6108:	80 0b 00 04 	lwz     r0,4(r11)
    610c:	7c 08 03 a6 	mtlr    r0
    6110:	83 eb ff fc 	lwz     r31,-4(r11)
    6114:	7d 61 5b 78 	mr      r1,r11
    6118:	4e 80 00 20 	blr

0000611c <rt_strcasecmp>:
    611c:	94 21 ff d0 	stwu    r1,-48(r1)
    6120:	93 e1 00 2c 	stw     r31,44(r1)
    6124:	7c 3f 0b 78 	mr      r31,r1
    6128:	90 7f 00 18 	stw     r3,24(r31)
    612c:	90 9f 00 1c 	stw     r4,28(r31)
    6130:	81 3f 00 18 	lwz     r9,24(r31)
    6134:	39 49 00 01 	addi    r10,r9,1
    6138:	91 5f 00 18 	stw     r10,24(r31)
    613c:	89 29 00 00 	lbz     r9,0(r9)
    6140:	55 29 06 3e 	clrlwi  r9,r9,24
    6144:	91 3f 00 08 	stw     r9,8(r31)
    6148:	81 3f 00 1c 	lwz     r9,28(r31)
    614c:	39 49 00 01 	addi    r10,r9,1
    6150:	91 5f 00 1c 	stw     r10,28(r31)
    6154:	89 29 00 00 	lbz     r9,0(r9)
    6158:	55 29 06 3e 	clrlwi  r9,r9,24
    615c:	91 3f 00 0c 	stw     r9,12(r31)
    6160:	81 3f 00 08 	lwz     r9,8(r31)
    6164:	2f 89 00 40 	cmpwi   cr7,r9,64
    6168:	40 9d 00 1c 	ble     cr7,6184 <rt_strcasecmp+0x68>
    616c:	81 3f 00 08 	lwz     r9,8(r31)
    6170:	2f 89 00 5a 	cmpwi   cr7,r9,90
    6174:	41 9d 00 10 	bgt     cr7,6184 <rt_strcasecmp+0x68>
    6178:	81 3f 00 08 	lwz     r9,8(r31)
    617c:	39 29 00 20 	addi    r9,r9,32
    6180:	91 3f 00 08 	stw     r9,8(r31)
    6184:	81 3f 00 0c 	lwz     r9,12(r31)
    6188:	2f 89 00 40 	cmpwi   cr7,r9,64
    618c:	40 9d 00 1c 	ble     cr7,61a8 <rt_strcasecmp+0x8c>
    6190:	81 3f 00 0c 	lwz     r9,12(r31)
    6194:	2f 89 00 5a 	cmpwi   cr7,r9,90
    6198:	41 9d 00 10 	bgt     cr7,61a8 <rt_strcasecmp+0x8c>
    619c:	81 3f 00 0c 	lwz     r9,12(r31)
    61a0:	39 29 00 20 	addi    r9,r9,32
    61a4:	91 3f 00 0c 	stw     r9,12(r31)
    61a8:	81 5f 00 08 	lwz     r10,8(r31)
    61ac:	81 3f 00 0c 	lwz     r9,12(r31)
    61b0:	7f 8a 48 00 	cmpw    cr7,r10,r9
    61b4:	40 9e 00 10 	bne     cr7,61c4 <rt_strcasecmp+0xa8>
    61b8:	81 3f 00 08 	lwz     r9,8(r31)
    61bc:	2f 89 00 00 	cmpwi   cr7,r9,0
    61c0:	40 9e ff 70 	bne     cr7,6130 <rt_strcasecmp+0x14>
    61c4:	81 5f 00 08 	lwz     r10,8(r31)
    61c8:	81 3f 00 0c 	lwz     r9,12(r31)
    61cc:	7d 29 50 50 	subf    r9,r9,r10
    61d0:	7d 23 4b 78 	mr      r3,r9
    61d4:	39 7f 00 30 	addi    r11,r31,48
    61d8:	83 eb ff fc 	lwz     r31,-4(r11)
    61dc:	7d 61 5b 78 	mr      r1,r11
    61e0:	4e 80 00 20 	blr

000061e4 <rt_strncpy>:
    61e4:	94 21 ff d0 	stwu    r1,-48(r1)
    61e8:	93 e1 00 2c 	stw     r31,44(r1)
    61ec:	7c 3f 0b 78 	mr      r31,r1
    61f0:	90 7f 00 18 	stw     r3,24(r31)
    61f4:	90 9f 00 1c 	stw     r4,28(r31)
    61f8:	90 bf 00 20 	stw     r5,32(r31)
    61fc:	81 3f 00 20 	lwz     r9,32(r31)
    6200:	2f 89 00 00 	cmpwi   cr7,r9,0
    6204:	41 9e 00 94 	beq     cr7,6298 <rt_strncpy+0xb4>
    6208:	81 3f 00 18 	lwz     r9,24(r31)
    620c:	91 3f 00 08 	stw     r9,8(r31)
    6210:	81 3f 00 1c 	lwz     r9,28(r31)
    6214:	91 3f 00 0c 	stw     r9,12(r31)
    6218:	81 3f 00 08 	lwz     r9,8(r31)
    621c:	39 49 00 01 	addi    r10,r9,1
    6220:	91 5f 00 08 	stw     r10,8(r31)
    6224:	81 5f 00 0c 	lwz     r10,12(r31)
    6228:	39 0a 00 01 	addi    r8,r10,1
    622c:	91 1f 00 0c 	stw     r8,12(r31)
    6230:	89 4a 00 00 	lbz     r10,0(r10)
    6234:	55 4a 06 3e 	clrlwi  r10,r10,24
    6238:	99 49 00 00 	stb     r10,0(r9)
    623c:	89 29 00 00 	lbz     r9,0(r9)
    6240:	55 29 06 3e 	clrlwi  r9,r9,24
    6244:	2f 89 00 00 	cmpwi   cr7,r9,0
    6248:	40 9e 00 38 	bne     cr7,6280 <rt_strncpy+0x9c>
    624c:	48 00 00 18 	b       6264 <rt_strncpy+0x80>
    6250:	81 3f 00 08 	lwz     r9,8(r31)
    6254:	39 49 00 01 	addi    r10,r9,1
    6258:	91 5f 00 08 	stw     r10,8(r31)
    625c:	39 40 00 00 	li      r10,0
    6260:	99 49 00 00 	stb     r10,0(r9)
    6264:	81 3f 00 20 	lwz     r9,32(r31)
    6268:	39 29 ff ff 	addi    r9,r9,-1
    626c:	91 3f 00 20 	stw     r9,32(r31)
    6270:	81 3f 00 20 	lwz     r9,32(r31)
    6274:	2f 89 00 00 	cmpwi   cr7,r9,0
    6278:	40 9e ff d8 	bne     cr7,6250 <rt_strncpy+0x6c>
    627c:	48 00 00 1c 	b       6298 <rt_strncpy+0xb4>
    6280:	81 3f 00 20 	lwz     r9,32(r31)
    6284:	39 29 ff ff 	addi    r9,r9,-1
    6288:	91 3f 00 20 	stw     r9,32(r31)
    628c:	81 3f 00 20 	lwz     r9,32(r31)
    6290:	2f 89 00 00 	cmpwi   cr7,r9,0
    6294:	40 9e ff 84 	bne     cr7,6218 <rt_strncpy+0x34>
    6298:	81 3f 00 18 	lwz     r9,24(r31)
    629c:	7d 23 4b 78 	mr      r3,r9
    62a0:	39 7f 00 30 	addi    r11,r31,48
    62a4:	83 eb ff fc 	lwz     r31,-4(r11)
    62a8:	7d 61 5b 78 	mr      r1,r11
    62ac:	4e 80 00 20 	blr

000062b0 <rt_strncmp>:
    62b0:	94 21 ff e0 	stwu    r1,-32(r1)
    62b4:	93 c1 00 18 	stw     r30,24(r1)
    62b8:	93 e1 00 1c 	stw     r31,28(r1)
    62bc:	7c 3f 0b 78 	mr      r31,r1
    62c0:	90 7f 00 08 	stw     r3,8(r31)
    62c4:	90 9f 00 0c 	stw     r4,12(r31)
    62c8:	90 bf 00 10 	stw     r5,16(r31)
    62cc:	3b c0 00 00 	li      r30,0
    62d0:	48 00 00 60 	b       6330 <rt_strncmp+0x80>
    62d4:	81 3f 00 08 	lwz     r9,8(r31)
    62d8:	89 29 00 00 	lbz     r9,0(r9)
    62dc:	55 2a 06 3e 	clrlwi  r10,r9,24
    62e0:	81 3f 00 0c 	lwz     r9,12(r31)
    62e4:	39 09 00 01 	addi    r8,r9,1
    62e8:	91 1f 00 0c 	stw     r8,12(r31)
    62ec:	89 29 00 00 	lbz     r9,0(r9)
    62f0:	55 29 06 3e 	clrlwi  r9,r9,24
    62f4:	7d 29 50 50 	subf    r9,r9,r10
    62f8:	55 29 06 3e 	clrlwi  r9,r9,24
    62fc:	7d 3e 07 74 	extsb   r30,r9
    6300:	2f 9e 00 00 	cmpwi   cr7,r30,0
    6304:	40 9e 00 38 	bne     cr7,633c <rt_strncmp+0x8c>
    6308:	81 3f 00 08 	lwz     r9,8(r31)
    630c:	39 49 00 01 	addi    r10,r9,1
    6310:	91 5f 00 08 	stw     r10,8(r31)
    6314:	89 29 00 00 	lbz     r9,0(r9)
    6318:	55 29 06 3e 	clrlwi  r9,r9,24
    631c:	2f 89 00 00 	cmpwi   cr7,r9,0
    6320:	41 9e 00 1c 	beq     cr7,633c <rt_strncmp+0x8c>
    6324:	81 3f 00 10 	lwz     r9,16(r31)
    6328:	39 29 ff ff 	addi    r9,r9,-1
    632c:	91 3f 00 10 	stw     r9,16(r31)
    6330:	81 3f 00 10 	lwz     r9,16(r31)
    6334:	2f 89 00 00 	cmpwi   cr7,r9,0
    6338:	40 9e ff 9c 	bne     cr7,62d4 <rt_strncmp+0x24>
    633c:	7f c9 f3 78 	mr      r9,r30
    6340:	7d 23 4b 78 	mr      r3,r9
    6344:	39 7f 00 20 	addi    r11,r31,32
    6348:	83 cb ff f8 	lwz     r30,-8(r11)
    634c:	83 eb ff fc 	lwz     r31,-4(r11)
    6350:	7d 61 5b 78 	mr      r1,r11
    6354:	4e 80 00 20 	blr

00006358 <rt_strcmp>:
    6358:	94 21 ff e0 	stwu    r1,-32(r1)
    635c:	93 e1 00 1c 	stw     r31,28(r1)
    6360:	7c 3f 0b 78 	mr      r31,r1
    6364:	90 7f 00 08 	stw     r3,8(r31)
    6368:	90 9f 00 0c 	stw     r4,12(r31)
    636c:	48 00 00 1c 	b       6388 <rt_strcmp+0x30>
    6370:	81 3f 00 08 	lwz     r9,8(r31)
    6374:	39 29 00 01 	addi    r9,r9,1
    6378:	91 3f 00 08 	stw     r9,8(r31)
    637c:	81 3f 00 0c 	lwz     r9,12(r31)
    6380:	39 29 00 01 	addi    r9,r9,1
    6384:	91 3f 00 0c 	stw     r9,12(r31)
    6388:	81 3f 00 08 	lwz     r9,8(r31)
    638c:	89 29 00 00 	lbz     r9,0(r9)
    6390:	55 29 06 3e 	clrlwi  r9,r9,24
    6394:	2f 89 00 00 	cmpwi   cr7,r9,0
    6398:	41 9e 00 24 	beq     cr7,63bc <rt_strcmp+0x64>
    639c:	81 3f 00 08 	lwz     r9,8(r31)
    63a0:	89 29 00 00 	lbz     r9,0(r9)
    63a4:	55 2a 06 3e 	clrlwi  r10,r9,24
    63a8:	81 3f 00 0c 	lwz     r9,12(r31)
    63ac:	89 29 00 00 	lbz     r9,0(r9)
    63b0:	55 29 06 3e 	clrlwi  r9,r9,24
    63b4:	7f 8a 48 40 	cmplw   cr7,r10,r9
    63b8:	41 9e ff b8 	beq     cr7,6370 <rt_strcmp+0x18>
    63bc:	81 3f 00 08 	lwz     r9,8(r31)
    63c0:	89 29 00 00 	lbz     r9,0(r9)
    63c4:	55 29 06 3e 	clrlwi  r9,r9,24
    63c8:	7d 2a 4b 78 	mr      r10,r9
    63cc:	81 3f 00 0c 	lwz     r9,12(r31)
    63d0:	89 29 00 00 	lbz     r9,0(r9)
    63d4:	55 29 06 3e 	clrlwi  r9,r9,24
    63d8:	7d 29 50 50 	subf    r9,r9,r10
    63dc:	7d 23 4b 78 	mr      r3,r9
    63e0:	39 7f 00 20 	addi    r11,r31,32
    63e4:	83 eb ff fc 	lwz     r31,-4(r11)
    63e8:	7d 61 5b 78 	mr      r1,r11
    63ec:	4e 80 00 20 	blr

000063f0 <rt_strlen>:
    63f0:	94 21 ff d0 	stwu    r1,-48(r1)
    63f4:	93 e1 00 2c 	stw     r31,44(r1)
    63f8:	7c 3f 0b 78 	mr      r31,r1
    63fc:	90 7f 00 18 	stw     r3,24(r31)
    6400:	81 3f 00 18 	lwz     r9,24(r31)
    6404:	91 3f 00 08 	stw     r9,8(r31)
    6408:	48 00 00 10 	b       6418 <rt_strlen+0x28>
    640c:	81 3f 00 08 	lwz     r9,8(r31)
    6410:	39 29 00 01 	addi    r9,r9,1
    6414:	91 3f 00 08 	stw     r9,8(r31)
    6418:	81 3f 00 08 	lwz     r9,8(r31)
    641c:	89 29 00 00 	lbz     r9,0(r9)
    6420:	55 29 06 3e 	clrlwi  r9,r9,24
    6424:	2f 89 00 00 	cmpwi   cr7,r9,0
    6428:	40 9e ff e4 	bne     cr7,640c <rt_strlen+0x1c>
    642c:	81 5f 00 08 	lwz     r10,8(r31)
    6430:	81 3f 00 18 	lwz     r9,24(r31)
    6434:	7d 29 50 50 	subf    r9,r9,r10
    6438:	7d 23 4b 78 	mr      r3,r9
    643c:	39 7f 00 30 	addi    r11,r31,48
    6440:	83 eb ff fc 	lwz     r31,-4(r11)
    6444:	7d 61 5b 78 	mr      r1,r11
    6448:	4e 80 00 20 	blr

0000644c <rt_strdup>:
    644c:	94 21 ff d0 	stwu    r1,-48(r1)
    6450:	7c 08 02 a6 	mflr    r0
    6454:	90 01 00 34 	stw     r0,52(r1)
    6458:	93 e1 00 2c 	stw     r31,44(r1)
    645c:	7c 3f 0b 78 	mr      r31,r1
    6460:	90 7f 00 18 	stw     r3,24(r31)
    6464:	80 7f 00 18 	lwz     r3,24(r31)
    6468:	4b ff ff 89 	bl      63f0 <rt_strlen>
    646c:	7c 69 1b 78 	mr      r9,r3
    6470:	39 29 00 01 	addi    r9,r9,1
    6474:	91 3f 00 08 	stw     r9,8(r31)
    6478:	80 7f 00 08 	lwz     r3,8(r31)
    647c:	48 00 18 b9 	bl      7d34 <rt_malloc>
    6480:	90 7f 00 0c 	stw     r3,12(r31)
    6484:	81 3f 00 0c 	lwz     r9,12(r31)
    6488:	2f 89 00 00 	cmpwi   cr7,r9,0
    648c:	40 9e 00 0c 	bne     cr7,6498 <rt_strdup+0x4c>
    6490:	39 20 00 00 	li      r9,0
    6494:	48 00 00 18 	b       64ac <rt_strdup+0x60>
    6498:	80 7f 00 0c 	lwz     r3,12(r31)
    649c:	80 9f 00 18 	lwz     r4,24(r31)
    64a0:	80 bf 00 08 	lwz     r5,8(r31)
    64a4:	4b ff f9 7d 	bl      5e20 <rt_memcpy>
    64a8:	81 3f 00 0c 	lwz     r9,12(r31)
    64ac:	7d 23 4b 78 	mr      r3,r9
    64b0:	39 7f 00 30 	addi    r11,r31,48
    64b4:	80 0b 00 04 	lwz     r0,4(r11)
    64b8:	7c 08 03 a6 	mtlr    r0
    64bc:	83 eb ff fc 	lwz     r31,-4(r11)
    64c0:	7d 61 5b 78 	mr      r1,r11
    64c4:	4e 80 00 20 	blr

000064c8 <rt_show_version>:
    64c8:	94 21 ff f0 	stwu    r1,-16(r1)
    64cc:	7c 08 02 a6 	mflr    r0
    64d0:	90 01 00 14 	stw     r0,20(r1)
    64d4:	93 e1 00 0c 	stw     r31,12(r1)
    64d8:	7c 3f 0b 78 	mr      r31,r1
    64dc:	3d 20 00 02 	lis     r9,2
    64e0:	38 69 a1 20 	addi    r3,r9,-24288
    64e4:	48 00 11 c9 	bl      76ac <rt_kprintf>
    64e8:	3d 20 00 02 	lis     r9,2
    64ec:	38 69 a1 2c 	addi    r3,r9,-24276
    64f0:	48 00 11 bd 	bl      76ac <rt_kprintf>
    64f4:	3d 20 00 02 	lis     r9,2
    64f8:	38 69 a1 50 	addi    r3,r9,-24240
    64fc:	38 80 00 02 	li      r4,2
    6500:	38 a0 00 01 	li      r5,1
    6504:	38 c0 00 00 	li      r6,0
    6508:	3d 20 00 02 	lis     r9,2
    650c:	38 e9 a1 70 	addi    r7,r9,-24208
    6510:	48 00 11 9d 	bl      76ac <rt_kprintf>
    6514:	3d 20 00 02 	lis     r9,2
    6518:	38 69 a1 7c 	addi    r3,r9,-24196
    651c:	48 00 11 91 	bl      76ac <rt_kprintf>
    6520:	39 7f 00 10 	addi    r11,r31,16
    6524:	80 0b 00 04 	lwz     r0,4(r11)
    6528:	7c 08 03 a6 	mtlr    r0
    652c:	83 eb ff fc 	lwz     r31,-4(r11)
    6530:	7d 61 5b 78 	mr      r1,r11
    6534:	4e 80 00 20 	blr

00006538 <divide>:
    6538:	94 21 ff d0 	stwu    r1,-48(r1)
    653c:	93 e1 00 2c 	stw     r31,44(r1)
    6540:	7c 3f 0b 78 	mr      r31,r1
    6544:	90 7f 00 18 	stw     r3,24(r31)
    6548:	90 9f 00 1c 	stw     r4,28(r31)
    654c:	81 3f 00 1c 	lwz     r9,28(r31)
    6550:	2f 89 00 0a 	cmpwi   cr7,r9,10
    6554:	40 9e 00 60 	bne     cr7,65b4 <divide+0x7c>
    6558:	81 3f 00 18 	lwz     r9,24(r31)
    655c:	81 29 00 00 	lwz     r9,0(r9)
    6560:	7d 2a 4b 78 	mr      r10,r9
    6564:	3d 20 cc cc 	lis     r9,-13108
    6568:	61 29 cc cd 	ori     r9,r9,52429
    656c:	7d 2a 48 16 	mulhwu  r9,r10,r9
    6570:	55 29 e8 fe 	rlwinm  r9,r9,29,3,31
    6574:	55 29 08 3c 	rlwinm  r9,r9,1,0,30
    6578:	55 28 10 3a 	rlwinm  r8,r9,2,0,29
    657c:	7d 29 42 14 	add     r9,r9,r8
    6580:	7d 29 50 50 	subf    r9,r9,r10
    6584:	91 3f 00 08 	stw     r9,8(r31)
    6588:	81 3f 00 18 	lwz     r9,24(r31)
    658c:	81 29 00 00 	lwz     r9,0(r9)
    6590:	7d 2a 4b 78 	mr      r10,r9
    6594:	3d 20 cc cc 	lis     r9,-13108
    6598:	61 29 cc cd 	ori     r9,r9,52429
    659c:	7d 2a 48 16 	mulhwu  r9,r10,r9
    65a0:	55 29 e8 fe 	rlwinm  r9,r9,29,3,31
    65a4:	7d 2a 4b 78 	mr      r10,r9
    65a8:	81 3f 00 18 	lwz     r9,24(r31)
    65ac:	91 49 00 00 	stw     r10,0(r9)
    65b0:	48 00 00 2c 	b       65dc <divide+0xa4>
    65b4:	81 3f 00 18 	lwz     r9,24(r31)
    65b8:	81 29 00 00 	lwz     r9,0(r9)
    65bc:	55 29 07 3e 	clrlwi  r9,r9,28
    65c0:	91 3f 00 08 	stw     r9,8(r31)
    65c4:	81 3f 00 18 	lwz     r9,24(r31)
    65c8:	81 29 00 00 	lwz     r9,0(r9)
    65cc:	55 29 e1 3e 	rlwinm  r9,r9,28,4,31
    65d0:	7d 2a 4b 78 	mr      r10,r9
    65d4:	81 3f 00 18 	lwz     r9,24(r31)
    65d8:	91 49 00 00 	stw     r10,0(r9)
    65dc:	81 3f 00 08 	lwz     r9,8(r31)
    65e0:	7d 23 4b 78 	mr      r3,r9
    65e4:	39 7f 00 30 	addi    r11,r31,48
    65e8:	83 eb ff fc 	lwz     r31,-4(r11)
    65ec:	7d 61 5b 78 	mr      r1,r11
    65f0:	4e 80 00 20 	blr

000065f4 <skip_atoi>:
    65f4:	94 21 ff e0 	stwu    r1,-32(r1)
    65f8:	93 c1 00 18 	stw     r30,24(r1)
    65fc:	93 e1 00 1c 	stw     r31,28(r1)
    6600:	7c 3f 0b 78 	mr      r31,r1
    6604:	90 7f 00 08 	stw     r3,8(r31)
    6608:	3b c0 00 00 	li      r30,0
    660c:	48 00 00 38 	b       6644 <skip_atoi+0x50>
    6610:	7f c9 f3 78 	mr      r9,r30
    6614:	55 29 08 3c 	rlwinm  r9,r9,1,0,30
    6618:	55 2a 10 3a 	rlwinm  r10,r9,2,0,29
    661c:	7d 49 52 14 	add     r10,r9,r10
    6620:	81 3f 00 08 	lwz     r9,8(r31)
    6624:	81 29 00 00 	lwz     r9,0(r9)
    6628:	38 e9 00 01 	addi    r7,r9,1
    662c:	81 1f 00 08 	lwz     r8,8(r31)
    6630:	90 e8 00 00 	stw     r7,0(r8)
    6634:	89 29 00 00 	lbz     r9,0(r9)
    6638:	55 29 06 3e 	clrlwi  r9,r9,24
    663c:	7d 2a 4a 14 	add     r9,r10,r9
    6640:	3b c9 ff d0 	addi    r30,r9,-48
    6644:	81 3f 00 08 	lwz     r9,8(r31)
    6648:	81 29 00 00 	lwz     r9,0(r9)
    664c:	89 29 00 00 	lbz     r9,0(r9)
    6650:	55 29 06 3e 	clrlwi  r9,r9,24
    6654:	39 29 ff d0 	addi    r9,r9,-48
    6658:	2b 89 00 09 	cmplwi  cr7,r9,9
    665c:	40 9d ff b4 	ble     cr7,6610 <skip_atoi+0x1c>
    6660:	7f c9 f3 78 	mr      r9,r30
    6664:	7d 23 4b 78 	mr      r3,r9
    6668:	39 7f 00 20 	addi    r11,r31,32
    666c:	83 cb ff f8 	lwz     r30,-8(r11)
    6670:	83 eb ff fc 	lwz     r31,-4(r11)
    6674:	7d 61 5b 78 	mr      r1,r11
    6678:	4e 80 00 20 	blr

0000667c <print_number>:
    667c:	94 21 ff a0 	stwu    r1,-96(r1)
    6680:	7c 08 02 a6 	mflr    r0
    6684:	90 01 00 64 	stw     r0,100(r1)
    6688:	93 81 00 50 	stw     r28,80(r1)
    668c:	93 a1 00 54 	stw     r29,84(r1)
    6690:	93 c1 00 58 	stw     r30,88(r1)
    6694:	93 e1 00 5c 	stw     r31,92(r1)
    6698:	7c 3f 0b 78 	mr      r31,r1
    669c:	90 7f 00 28 	stw     r3,40(r31)
    66a0:	90 9f 00 2c 	stw     r4,44(r31)
    66a4:	90 bf 00 30 	stw     r5,48(r31)
    66a8:	90 df 00 34 	stw     r6,52(r31)
    66ac:	90 ff 00 38 	stw     r7,56(r31)
    66b0:	91 1f 00 3c 	stw     r8,60(r31)
    66b4:	91 3f 00 40 	stw     r9,64(r31)
    66b8:	83 df 00 38 	lwz     r30,56(r31)
    66bc:	81 3f 00 40 	lwz     r9,64(r31)
    66c0:	55 29 06 72 	rlwinm  r9,r9,0,25,25
    66c4:	2f 89 00 00 	cmpwi   cr7,r9,0
    66c8:	41 9e 00 10 	beq     cr7,66d8 <print_number+0x5c>
    66cc:	3d 20 00 02 	lis     r9,2
    66d0:	39 29 a4 00 	addi    r9,r9,-23552
    66d4:	48 00 00 0c 	b       66e0 <print_number+0x64>
    66d8:	3d 20 00 02 	lis     r9,2
    66dc:	39 29 a4 14 	addi    r9,r9,-23532
    66e0:	91 3f 00 0c 	stw     r9,12(r31)
    66e4:	81 3f 00 40 	lwz     r9,64(r31)
    66e8:	55 29 06 f6 	rlwinm  r9,r9,0,27,27
    66ec:	2f 89 00 00 	cmpwi   cr7,r9,0
    66f0:	41 9e 00 10 	beq     cr7,6700 <print_number+0x84>
    66f4:	81 3f 00 40 	lwz     r9,64(r31)
    66f8:	55 29 00 3c 	rlwinm  r9,r9,0,0,30
    66fc:	91 3f 00 40 	stw     r9,64(r31)
    6700:	81 3f 00 40 	lwz     r9,64(r31)
    6704:	55 29 07 fe 	clrlwi  r9,r9,31
    6708:	2f 89 00 00 	cmpwi   cr7,r9,0
    670c:	41 9e 00 0c 	beq     cr7,6718 <print_number+0x9c>
    6710:	39 20 00 30 	li      r9,48
    6714:	48 00 00 08 	b       671c <print_number+0xa0>
    6718:	39 20 00 20 	li      r9,32
    671c:	99 3f 00 10 	stb     r9,16(r31)
    6720:	39 20 00 00 	li      r9,0
    6724:	99 3f 00 08 	stb     r9,8(r31)
    6728:	81 3f 00 40 	lwz     r9,64(r31)
    672c:	55 29 07 bc 	rlwinm  r9,r9,0,30,30
    6730:	2f 89 00 00 	cmpwi   cr7,r9,0
    6734:	41 9e 00 5c 	beq     cr7,6790 <print_number+0x114>
    6738:	81 3f 00 30 	lwz     r9,48(r31)
    673c:	2f 89 00 00 	cmpwi   cr7,r9,0
    6740:	40 9c 00 1c 	bge     cr7,675c <print_number+0xe0>
    6744:	39 20 00 2d 	li      r9,45
    6748:	99 3f 00 08 	stb     r9,8(r31)
    674c:	81 3f 00 30 	lwz     r9,48(r31)
    6750:	7d 29 00 d0 	neg     r9,r9
    6754:	91 3f 00 30 	stw     r9,48(r31)
    6758:	48 00 00 38 	b       6790 <print_number+0x114>
    675c:	81 3f 00 40 	lwz     r9,64(r31)
    6760:	55 29 07 7a 	rlwinm  r9,r9,0,29,29
    6764:	2f 89 00 00 	cmpwi   cr7,r9,0
    6768:	41 9e 00 10 	beq     cr7,6778 <print_number+0xfc>
    676c:	39 20 00 2b 	li      r9,43
    6770:	99 3f 00 08 	stb     r9,8(r31)
    6774:	48 00 00 1c 	b       6790 <print_number+0x114>
    6778:	81 3f 00 40 	lwz     r9,64(r31)
    677c:	55 29 07 38 	rlwinm  r9,r9,0,28,28
    6780:	2f 89 00 00 	cmpwi   cr7,r9,0
    6784:	41 9e 00 0c 	beq     cr7,6790 <print_number+0x114>
    6788:	39 20 00 20 	li      r9,32
    678c:	99 3f 00 08 	stb     r9,8(r31)
    6790:	3b a0 00 00 	li      r29,0
    6794:	81 3f 00 30 	lwz     r9,48(r31)
    6798:	2f 89 00 00 	cmpwi   cr7,r9,0
    679c:	40 9e 00 20 	bne     cr7,67bc <print_number+0x140>
    67a0:	7f a9 eb 78 	mr      r9,r29
    67a4:	3b a9 00 01 	addi    r29,r9,1
    67a8:	39 5f 00 08 	addi    r10,r31,8
    67ac:	7d 2a 4a 14 	add     r9,r10,r9
    67b0:	39 40 00 30 	li      r10,48
    67b4:	99 49 00 0c 	stb     r10,12(r9)
    67b8:	48 00 00 50 	b       6808 <print_number+0x18c>
    67bc:	48 00 00 40 	b       67fc <print_number+0x180>
    67c0:	7f bc eb 78 	mr      r28,r29
    67c4:	3b bc 00 01 	addi    r29,r28,1
    67c8:	39 3f 00 30 	addi    r9,r31,48
    67cc:	7d 23 4b 78 	mr      r3,r9
    67d0:	80 9f 00 34 	lwz     r4,52(r31)
    67d4:	4b ff fd 65 	bl      6538 <divide>
    67d8:	7c 69 1b 78 	mr      r9,r3
    67dc:	7d 2a 4b 78 	mr      r10,r9
    67e0:	81 3f 00 0c 	lwz     r9,12(r31)
    67e4:	7d 29 52 14 	add     r9,r9,r10
    67e8:	89 29 00 00 	lbz     r9,0(r9)
    67ec:	55 2a 06 3e 	clrlwi  r10,r9,24
    67f0:	39 3f 00 08 	addi    r9,r31,8
    67f4:	7d 29 e2 14 	add     r9,r9,r28
    67f8:	99 49 00 0c 	stb     r10,12(r9)
    67fc:	81 3f 00 30 	lwz     r9,48(r31)
    6800:	2f 89 00 00 	cmpwi   cr7,r9,0
    6804:	40 9e ff bc 	bne     cr7,67c0 <print_number+0x144>
    6808:	81 3f 00 3c 	lwz     r9,60(r31)
    680c:	7f 9d 48 00 	cmpw    cr7,r29,r9
    6810:	40 9d 00 08 	ble     cr7,6818 <print_number+0x19c>
    6814:	93 bf 00 3c 	stw     r29,60(r31)
    6818:	81 3f 00 3c 	lwz     r9,60(r31)
    681c:	7f c9 f0 50 	subf    r30,r9,r30
    6820:	81 3f 00 40 	lwz     r9,64(r31)
    6824:	71 29 00 11 	andi.   r9,r9,17
    6828:	2f 89 00 00 	cmpwi   cr7,r9,0
    682c:	40 9e 00 5c 	bne     cr7,6888 <print_number+0x20c>
    6830:	89 3f 00 08 	lbz     r9,8(r31)
    6834:	55 29 06 3e 	clrlwi  r9,r9,24
    6838:	2f 89 00 00 	cmpwi   cr7,r9,0
    683c:	41 9e 00 10 	beq     cr7,684c <print_number+0x1d0>
    6840:	2f 9e 00 00 	cmpwi   cr7,r30,0
    6844:	40 9d 00 08 	ble     cr7,684c <print_number+0x1d0>
    6848:	3b de ff ff 	addi    r30,r30,-1
    684c:	48 00 00 2c 	b       6878 <print_number+0x1fc>
    6850:	81 5f 00 28 	lwz     r10,40(r31)
    6854:	81 3f 00 2c 	lwz     r9,44(r31)
    6858:	7f 8a 48 40 	cmplw   cr7,r10,r9
    685c:	41 9d 00 10 	bgt     cr7,686c <print_number+0x1f0>
    6860:	81 3f 00 28 	lwz     r9,40(r31)
    6864:	39 40 00 20 	li      r10,32
    6868:	99 49 00 00 	stb     r10,0(r9)
    686c:	81 3f 00 28 	lwz     r9,40(r31)
    6870:	39 29 00 01 	addi    r9,r9,1
    6874:	91 3f 00 28 	stw     r9,40(r31)
    6878:	7f c9 f3 78 	mr      r9,r30
    687c:	3b c9 ff ff 	addi    r30,r9,-1
    6880:	2f 89 00 00 	cmpwi   cr7,r9,0
    6884:	41 9d ff cc 	bgt     cr7,6850 <print_number+0x1d4>
    6888:	89 3f 00 08 	lbz     r9,8(r31)
    688c:	55 29 06 3e 	clrlwi  r9,r9,24
    6890:	2f 89 00 00 	cmpwi   cr7,r9,0
    6894:	41 9e 00 30 	beq     cr7,68c4 <print_number+0x248>
    6898:	81 5f 00 28 	lwz     r10,40(r31)
    689c:	81 3f 00 2c 	lwz     r9,44(r31)
    68a0:	7f 8a 48 40 	cmplw   cr7,r10,r9
    68a4:	41 9d 00 14 	bgt     cr7,68b8 <print_number+0x23c>
    68a8:	81 3f 00 28 	lwz     r9,40(r31)
    68ac:	89 5f 00 08 	lbz     r10,8(r31)
    68b0:	99 49 00 00 	stb     r10,0(r9)
    68b4:	3b de ff ff 	addi    r30,r30,-1
    68b8:	81 3f 00 28 	lwz     r9,40(r31)
    68bc:	39 29 00 01 	addi    r9,r9,1
    68c0:	91 3f 00 28 	stw     r9,40(r31)
    68c4:	81 3f 00 40 	lwz     r9,64(r31)
    68c8:	55 29 06 f6 	rlwinm  r9,r9,0,27,27
    68cc:	2f 89 00 00 	cmpwi   cr7,r9,0
    68d0:	40 9e 00 40 	bne     cr7,6910 <print_number+0x294>
    68d4:	48 00 00 2c 	b       6900 <print_number+0x284>
    68d8:	81 5f 00 28 	lwz     r10,40(r31)
    68dc:	81 3f 00 2c 	lwz     r9,44(r31)
    68e0:	7f 8a 48 40 	cmplw   cr7,r10,r9
    68e4:	41 9d 00 10 	bgt     cr7,68f4 <print_number+0x278>
    68e8:	81 3f 00 28 	lwz     r9,40(r31)
    68ec:	89 5f 00 10 	lbz     r10,16(r31)
    68f0:	99 49 00 00 	stb     r10,0(r9)
    68f4:	81 3f 00 28 	lwz     r9,40(r31)
    68f8:	39 29 00 01 	addi    r9,r9,1
    68fc:	91 3f 00 28 	stw     r9,40(r31)
    6900:	7f c9 f3 78 	mr      r9,r30
    6904:	3b c9 ff ff 	addi    r30,r9,-1
    6908:	2f 89 00 00 	cmpwi   cr7,r9,0
    690c:	41 9d ff cc 	bgt     cr7,68d8 <print_number+0x25c>
    6910:	48 00 00 2c 	b       693c <print_number+0x2c0>
    6914:	81 5f 00 28 	lwz     r10,40(r31)
    6918:	81 3f 00 2c 	lwz     r9,44(r31)
    691c:	7f 8a 48 40 	cmplw   cr7,r10,r9
    6920:	41 9d 00 10 	bgt     cr7,6930 <print_number+0x2b4>
    6924:	81 3f 00 28 	lwz     r9,40(r31)
    6928:	39 40 00 30 	li      r10,48
    692c:	99 49 00 00 	stb     r10,0(r9)
    6930:	81 3f 00 28 	lwz     r9,40(r31)
    6934:	39 29 00 01 	addi    r9,r9,1
    6938:	91 3f 00 28 	stw     r9,40(r31)
    693c:	81 3f 00 3c 	lwz     r9,60(r31)
    6940:	39 49 ff ff 	addi    r10,r9,-1
    6944:	91 5f 00 3c 	stw     r10,60(r31)
    6948:	7f 89 e8 00 	cmpw    cr7,r9,r29
    694c:	41 9d ff c8 	bgt     cr7,6914 <print_number+0x298>
    6950:	48 00 00 38 	b       6988 <print_number+0x30c>
    6954:	81 5f 00 28 	lwz     r10,40(r31)
    6958:	81 3f 00 2c 	lwz     r9,44(r31)
    695c:	7f 8a 48 40 	cmplw   cr7,r10,r9
    6960:	41 9d 00 1c 	bgt     cr7,697c <print_number+0x300>
    6964:	39 3f 00 08 	addi    r9,r31,8
    6968:	7d 29 ea 14 	add     r9,r9,r29
    696c:	89 29 00 0c 	lbz     r9,12(r9)
    6970:	55 2a 06 3e 	clrlwi  r10,r9,24
    6974:	81 3f 00 28 	lwz     r9,40(r31)
    6978:	99 49 00 00 	stb     r10,0(r9)
    697c:	81 3f 00 28 	lwz     r9,40(r31)
    6980:	39 29 00 01 	addi    r9,r9,1
    6984:	91 3f 00 28 	stw     r9,40(r31)
    6988:	7f a9 eb 78 	mr      r9,r29
    698c:	3b a9 ff ff 	addi    r29,r9,-1
    6990:	2f 89 00 00 	cmpwi   cr7,r9,0
    6994:	41 9d ff c0 	bgt     cr7,6954 <print_number+0x2d8>
    6998:	48 00 00 2c 	b       69c4 <print_number+0x348>
    699c:	81 5f 00 28 	lwz     r10,40(r31)
    69a0:	81 3f 00 2c 	lwz     r9,44(r31)
    69a4:	7f 8a 48 40 	cmplw   cr7,r10,r9
    69a8:	41 9d 00 10 	bgt     cr7,69b8 <print_number+0x33c>
    69ac:	81 3f 00 28 	lwz     r9,40(r31)
    69b0:	39 40 00 20 	li      r10,32
    69b4:	99 49 00 00 	stb     r10,0(r9)
    69b8:	81 3f 00 28 	lwz     r9,40(r31)
    69bc:	39 29 00 01 	addi    r9,r9,1
    69c0:	91 3f 00 28 	stw     r9,40(r31)
    69c4:	7f c9 f3 78 	mr      r9,r30
    69c8:	3b c9 ff ff 	addi    r30,r9,-1
    69cc:	2f 89 00 00 	cmpwi   cr7,r9,0
    69d0:	41 9d ff cc 	bgt     cr7,699c <print_number+0x320>
    69d4:	81 3f 00 28 	lwz     r9,40(r31)
    69d8:	7d 23 4b 78 	mr      r3,r9
    69dc:	39 7f 00 60 	addi    r11,r31,96
    69e0:	80 0b 00 04 	lwz     r0,4(r11)
    69e4:	7c 08 03 a6 	mtlr    r0
    69e8:	83 8b ff f0 	lwz     r28,-16(r11)
    69ec:	83 ab ff f4 	lwz     r29,-12(r11)
    69f0:	83 cb ff f8 	lwz     r30,-8(r11)
    69f4:	83 eb ff fc 	lwz     r31,-4(r11)
    69f8:	7d 61 5b 78 	mr      r1,r11
    69fc:	4e 80 00 20 	blr

00006a00 <rt_vsnprintf>:
    6a00:	94 21 ff b0 	stwu    r1,-80(r1)
    6a04:	7c 08 02 a6 	mflr    r0
    6a08:	90 01 00 54 	stw     r0,84(r1)
    6a0c:	93 e1 00 4c 	stw     r31,76(r1)
    6a10:	7c 3f 0b 78 	mr      r31,r1
    6a14:	90 7f 00 38 	stw     r3,56(r31)
    6a18:	90 9f 00 3c 	stw     r4,60(r31)
    6a1c:	90 bf 00 40 	stw     r5,64(r31)
    6a20:	90 df 00 44 	stw     r6,68(r31)
    6a24:	81 3f 00 38 	lwz     r9,56(r31)
    6a28:	91 3f 00 14 	stw     r9,20(r31)
    6a2c:	81 3f 00 3c 	lwz     r9,60(r31)
    6a30:	39 29 ff ff 	addi    r9,r9,-1
    6a34:	81 5f 00 38 	lwz     r10,56(r31)
    6a38:	7d 2a 4a 14 	add     r9,r10,r9
    6a3c:	91 3f 00 18 	stw     r9,24(r31)
    6a40:	81 5f 00 18 	lwz     r10,24(r31)
    6a44:	81 3f 00 38 	lwz     r9,56(r31)
    6a48:	7f 8a 48 40 	cmplw   cr7,r10,r9
    6a4c:	40 9c 00 1c 	bge     cr7,6a68 <rt_vsnprintf+0x68>
    6a50:	39 20 ff ff 	li      r9,-1
    6a54:	91 3f 00 18 	stw     r9,24(r31)
    6a58:	81 5f 00 18 	lwz     r10,24(r31)
    6a5c:	81 3f 00 38 	lwz     r9,56(r31)
    6a60:	7d 29 50 50 	subf    r9,r9,r10
    6a64:	91 3f 00 3c 	stw     r9,60(r31)
    6a68:	48 00 09 88 	b       73f0 <rt_vsnprintf+0x9f0>
    6a6c:	81 3f 00 40 	lwz     r9,64(r31)
    6a70:	89 29 00 00 	lbz     r9,0(r9)
    6a74:	55 29 06 3e 	clrlwi  r9,r9,24
    6a78:	2b 89 00 25 	cmplwi  cr7,r9,37
    6a7c:	41 9e 00 38 	beq     cr7,6ab4 <rt_vsnprintf+0xb4>
    6a80:	81 5f 00 14 	lwz     r10,20(r31)
    6a84:	81 3f 00 18 	lwz     r9,24(r31)
    6a88:	7f 8a 48 40 	cmplw   cr7,r10,r9
    6a8c:	41 9d 00 18 	bgt     cr7,6aa4 <rt_vsnprintf+0xa4>
    6a90:	81 3f 00 40 	lwz     r9,64(r31)
    6a94:	89 29 00 00 	lbz     r9,0(r9)
    6a98:	55 2a 06 3e 	clrlwi  r10,r9,24
    6a9c:	81 3f 00 14 	lwz     r9,20(r31)
    6aa0:	99 49 00 00 	stb     r10,0(r9)
    6aa4:	81 3f 00 14 	lwz     r9,20(r31)
    6aa8:	39 29 00 01 	addi    r9,r9,1
    6aac:	91 3f 00 14 	stw     r9,20(r31)
    6ab0:	48 00 09 34 	b       73e4 <rt_vsnprintf+0x9e4>
    6ab4:	39 20 00 00 	li      r9,0
    6ab8:	99 3f 00 21 	stb     r9,33(r31)
    6abc:	81 3f 00 40 	lwz     r9,64(r31)
    6ac0:	39 29 00 01 	addi    r9,r9,1
    6ac4:	91 3f 00 40 	stw     r9,64(r31)
    6ac8:	81 3f 00 40 	lwz     r9,64(r31)
    6acc:	89 29 00 00 	lbz     r9,0(r9)
    6ad0:	55 29 06 3e 	clrlwi  r9,r9,24
    6ad4:	2b 89 00 2d 	cmplwi  cr7,r9,45
    6ad8:	40 9e 00 14 	bne     cr7,6aec <rt_vsnprintf+0xec>
    6adc:	89 3f 00 21 	lbz     r9,33(r31)
    6ae0:	61 29 00 10 	ori     r9,r9,16
    6ae4:	99 3f 00 21 	stb     r9,33(r31)
    6ae8:	48 00 00 bc 	b       6ba4 <rt_vsnprintf+0x1a4>
    6aec:	81 3f 00 40 	lwz     r9,64(r31)
    6af0:	89 29 00 00 	lbz     r9,0(r9)
    6af4:	55 29 06 3e 	clrlwi  r9,r9,24
    6af8:	2b 89 00 2b 	cmplwi  cr7,r9,43
    6afc:	40 9e 00 14 	bne     cr7,6b10 <rt_vsnprintf+0x110>
    6b00:	89 3f 00 21 	lbz     r9,33(r31)
    6b04:	61 29 00 04 	ori     r9,r9,4
    6b08:	99 3f 00 21 	stb     r9,33(r31)
    6b0c:	48 00 00 98 	b       6ba4 <rt_vsnprintf+0x1a4>
    6b10:	81 3f 00 40 	lwz     r9,64(r31)
    6b14:	89 29 00 00 	lbz     r9,0(r9)
    6b18:	55 29 06 3e 	clrlwi  r9,r9,24
    6b1c:	2b 89 00 20 	cmplwi  cr7,r9,32
    6b20:	40 9e 00 14 	bne     cr7,6b34 <rt_vsnprintf+0x134>
    6b24:	89 3f 00 21 	lbz     r9,33(r31)
    6b28:	61 29 00 08 	ori     r9,r9,8
    6b2c:	99 3f 00 21 	stb     r9,33(r31)
    6b30:	48 00 00 74 	b       6ba4 <rt_vsnprintf+0x1a4>
    6b34:	81 3f 00 40 	lwz     r9,64(r31)
    6b38:	89 29 00 00 	lbz     r9,0(r9)
    6b3c:	55 29 06 3e 	clrlwi  r9,r9,24
    6b40:	2b 89 00 23 	cmplwi  cr7,r9,35
    6b44:	40 9e 00 14 	bne     cr7,6b58 <rt_vsnprintf+0x158>
    6b48:	89 3f 00 21 	lbz     r9,33(r31)
    6b4c:	61 29 00 20 	ori     r9,r9,32
    6b50:	99 3f 00 21 	stb     r9,33(r31)
    6b54:	48 00 00 50 	b       6ba4 <rt_vsnprintf+0x1a4>
    6b58:	81 3f 00 40 	lwz     r9,64(r31)
    6b5c:	89 29 00 00 	lbz     r9,0(r9)
    6b60:	55 29 06 3e 	clrlwi  r9,r9,24
    6b64:	2b 89 00 30 	cmplwi  cr7,r9,48
    6b68:	40 9e 00 14 	bne     cr7,6b7c <rt_vsnprintf+0x17c>
    6b6c:	89 3f 00 21 	lbz     r9,33(r31)
    6b70:	61 29 00 01 	ori     r9,r9,1
    6b74:	99 3f 00 21 	stb     r9,33(r31)
    6b78:	48 00 00 2c 	b       6ba4 <rt_vsnprintf+0x1a4>
    6b7c:	60 00 00 00 	nop
    6b80:	39 20 ff ff 	li      r9,-1
    6b84:	91 3f 00 24 	stw     r9,36(r31)
    6b88:	81 3f 00 40 	lwz     r9,64(r31)
    6b8c:	89 29 00 00 	lbz     r9,0(r9)
    6b90:	55 29 06 3e 	clrlwi  r9,r9,24
    6b94:	39 29 ff d0 	addi    r9,r9,-48
    6b98:	2b 89 00 09 	cmplwi  cr7,r9,9
    6b9c:	41 9d 00 20 	bgt     cr7,6bbc <rt_vsnprintf+0x1bc>
    6ba0:	48 00 00 08 	b       6ba8 <rt_vsnprintf+0x1a8>
    6ba4:	4b ff ff 18 	b       6abc <rt_vsnprintf+0xbc>
    6ba8:	39 3f 00 40 	addi    r9,r31,64
    6bac:	7d 23 4b 78 	mr      r3,r9
    6bb0:	4b ff fa 45 	bl      65f4 <skip_atoi>
    6bb4:	90 7f 00 24 	stw     r3,36(r31)
    6bb8:	48 00 00 a8 	b       6c60 <rt_vsnprintf+0x260>
    6bbc:	81 3f 00 40 	lwz     r9,64(r31)
    6bc0:	89 29 00 00 	lbz     r9,0(r9)
    6bc4:	55 29 06 3e 	clrlwi  r9,r9,24
    6bc8:	2b 89 00 2a 	cmplwi  cr7,r9,42
    6bcc:	40 9e 00 94 	bne     cr7,6c60 <rt_vsnprintf+0x260>
    6bd0:	81 3f 00 40 	lwz     r9,64(r31)
    6bd4:	39 29 00 01 	addi    r9,r9,1
    6bd8:	91 3f 00 40 	stw     r9,64(r31)
    6bdc:	81 3f 00 44 	lwz     r9,68(r31)
    6be0:	89 29 00 00 	lbz     r9,0(r9)
    6be4:	55 29 06 3e 	clrlwi  r9,r9,24
    6be8:	2b 89 00 08 	cmplwi  cr7,r9,8
    6bec:	40 9c 00 34 	bge     cr7,6c20 <rt_vsnprintf+0x220>
    6bf0:	81 3f 00 44 	lwz     r9,68(r31)
    6bf4:	81 49 00 08 	lwz     r10,8(r9)
    6bf8:	81 3f 00 44 	lwz     r9,68(r31)
    6bfc:	89 29 00 00 	lbz     r9,0(r9)
    6c00:	55 29 06 3e 	clrlwi  r9,r9,24
    6c04:	39 09 00 01 	addi    r8,r9,1
    6c08:	55 07 06 3e 	clrlwi  r7,r8,24
    6c0c:	81 1f 00 44 	lwz     r8,68(r31)
    6c10:	98 e8 00 00 	stb     r7,0(r8)
    6c14:	55 29 10 3a 	rlwinm  r9,r9,2,0,29
    6c18:	7d 2a 4a 14 	add     r9,r10,r9
    6c1c:	48 00 00 18 	b       6c34 <rt_vsnprintf+0x234>
    6c20:	81 3f 00 44 	lwz     r9,68(r31)
    6c24:	81 29 00 04 	lwz     r9,4(r9)
    6c28:	39 09 00 04 	addi    r8,r9,4
    6c2c:	81 5f 00 44 	lwz     r10,68(r31)
    6c30:	91 0a 00 04 	stw     r8,4(r10)
    6c34:	81 29 00 00 	lwz     r9,0(r9)
    6c38:	91 3f 00 24 	stw     r9,36(r31)
    6c3c:	81 3f 00 24 	lwz     r9,36(r31)
    6c40:	2f 89 00 00 	cmpwi   cr7,r9,0
    6c44:	40 9c 00 1c 	bge     cr7,6c60 <rt_vsnprintf+0x260>
    6c48:	81 3f 00 24 	lwz     r9,36(r31)
    6c4c:	7d 29 00 d0 	neg     r9,r9
    6c50:	91 3f 00 24 	stw     r9,36(r31)
    6c54:	89 3f 00 21 	lbz     r9,33(r31)
    6c58:	61 29 00 10 	ori     r9,r9,16
    6c5c:	99 3f 00 21 	stb     r9,33(r31)
    6c60:	39 20 ff ff 	li      r9,-1
    6c64:	91 3f 00 28 	stw     r9,40(r31)
    6c68:	81 3f 00 40 	lwz     r9,64(r31)
    6c6c:	89 29 00 00 	lbz     r9,0(r9)
    6c70:	55 29 06 3e 	clrlwi  r9,r9,24
    6c74:	2b 89 00 2e 	cmplwi  cr7,r9,46
    6c78:	40 9e 00 d0 	bne     cr7,6d48 <rt_vsnprintf+0x348>
    6c7c:	81 3f 00 40 	lwz     r9,64(r31)
    6c80:	39 29 00 01 	addi    r9,r9,1
    6c84:	91 3f 00 40 	stw     r9,64(r31)
    6c88:	81 3f 00 40 	lwz     r9,64(r31)
    6c8c:	89 29 00 00 	lbz     r9,0(r9)
    6c90:	55 29 06 3e 	clrlwi  r9,r9,24
    6c94:	39 29 ff d0 	addi    r9,r9,-48
    6c98:	2b 89 00 09 	cmplwi  cr7,r9,9
    6c9c:	41 9d 00 18 	bgt     cr7,6cb4 <rt_vsnprintf+0x2b4>
    6ca0:	39 3f 00 40 	addi    r9,r31,64
    6ca4:	7d 23 4b 78 	mr      r3,r9
    6ca8:	4b ff f9 4d 	bl      65f4 <skip_atoi>
    6cac:	90 7f 00 28 	stw     r3,40(r31)
    6cb0:	48 00 00 84 	b       6d34 <rt_vsnprintf+0x334>
    6cb4:	81 3f 00 40 	lwz     r9,64(r31)
    6cb8:	89 29 00 00 	lbz     r9,0(r9)
    6cbc:	55 29 06 3e 	clrlwi  r9,r9,24
    6cc0:	2b 89 00 2a 	cmplwi  cr7,r9,42
    6cc4:	40 9e 00 70 	bne     cr7,6d34 <rt_vsnprintf+0x334>
    6cc8:	81 3f 00 40 	lwz     r9,64(r31)
    6ccc:	39 29 00 01 	addi    r9,r9,1
    6cd0:	91 3f 00 40 	stw     r9,64(r31)
    6cd4:	81 3f 00 44 	lwz     r9,68(r31)
    6cd8:	89 29 00 00 	lbz     r9,0(r9)
    6cdc:	55 29 06 3e 	clrlwi  r9,r9,24
    6ce0:	2b 89 00 08 	cmplwi  cr7,r9,8
    6ce4:	40 9c 00 34 	bge     cr7,6d18 <rt_vsnprintf+0x318>
    6ce8:	81 3f 00 44 	lwz     r9,68(r31)
    6cec:	81 49 00 08 	lwz     r10,8(r9)
    6cf0:	81 3f 00 44 	lwz     r9,68(r31)
    6cf4:	89 29 00 00 	lbz     r9,0(r9)
    6cf8:	55 29 06 3e 	clrlwi  r9,r9,24
    6cfc:	39 09 00 01 	addi    r8,r9,1
    6d00:	55 07 06 3e 	clrlwi  r7,r8,24
    6d04:	81 1f 00 44 	lwz     r8,68(r31)
    6d08:	98 e8 00 00 	stb     r7,0(r8)
    6d0c:	55 29 10 3a 	rlwinm  r9,r9,2,0,29
    6d10:	7d 2a 4a 14 	add     r9,r10,r9
    6d14:	48 00 00 18 	b       6d2c <rt_vsnprintf+0x32c>
    6d18:	81 3f 00 44 	lwz     r9,68(r31)
    6d1c:	81 29 00 04 	lwz     r9,4(r9)
    6d20:	39 09 00 04 	addi    r8,r9,4
    6d24:	81 5f 00 44 	lwz     r10,68(r31)
    6d28:	91 0a 00 04 	stw     r8,4(r10)
    6d2c:	81 29 00 00 	lwz     r9,0(r9)
    6d30:	91 3f 00 28 	stw     r9,40(r31)
    6d34:	81 3f 00 28 	lwz     r9,40(r31)
    6d38:	2f 89 00 00 	cmpwi   cr7,r9,0
    6d3c:	40 9c 00 0c 	bge     cr7,6d48 <rt_vsnprintf+0x348>
    6d40:	39 20 00 00 	li      r9,0
    6d44:	91 3f 00 28 	stw     r9,40(r31)
    6d48:	39 20 00 00 	li      r9,0
    6d4c:	99 3f 00 22 	stb     r9,34(r31)
    6d50:	81 3f 00 40 	lwz     r9,64(r31)
    6d54:	89 29 00 00 	lbz     r9,0(r9)
    6d58:	55 29 06 3e 	clrlwi  r9,r9,24
    6d5c:	2b 89 00 68 	cmplwi  cr7,r9,104
    6d60:	41 9e 00 18 	beq     cr7,6d78 <rt_vsnprintf+0x378>
    6d64:	81 3f 00 40 	lwz     r9,64(r31)
    6d68:	89 29 00 00 	lbz     r9,0(r9)
    6d6c:	55 29 06 3e 	clrlwi  r9,r9,24
    6d70:	2b 89 00 6c 	cmplwi  cr7,r9,108
    6d74:	40 9e 00 1c 	bne     cr7,6d90 <rt_vsnprintf+0x390>
    6d78:	81 3f 00 40 	lwz     r9,64(r31)
    6d7c:	89 29 00 00 	lbz     r9,0(r9)
    6d80:	99 3f 00 22 	stb     r9,34(r31)
    6d84:	81 3f 00 40 	lwz     r9,64(r31)
    6d88:	39 29 00 01 	addi    r9,r9,1
    6d8c:	91 3f 00 40 	stw     r9,64(r31)
    6d90:	39 20 00 0a 	li      r9,10
    6d94:	99 3f 00 20 	stb     r9,32(r31)
    6d98:	81 3f 00 40 	lwz     r9,64(r31)
    6d9c:	89 29 00 00 	lbz     r9,0(r9)
    6da0:	55 29 06 3e 	clrlwi  r9,r9,24
    6da4:	39 29 ff db 	addi    r9,r9,-37
    6da8:	2b 89 00 53 	cmplwi  cr7,r9,83
    6dac:	41 9d 04 14 	bgt     cr7,71c0 <rt_vsnprintf+0x7c0>
    6db0:	55 2a 10 3a 	rlwinm  r10,r9,2,0,29
    6db4:	3d 20 00 02 	lis     r9,2
    6db8:	39 29 a1 b0 	addi    r9,r9,-24144
    6dbc:	7d 2a 4a 14 	add     r9,r10,r9
    6dc0:	81 49 00 00 	lwz     r10,0(r9)
    6dc4:	3d 20 00 02 	lis     r9,2
    6dc8:	39 29 a1 b0 	addi    r9,r9,-24144
    6dcc:	7d 2a 4a 14 	add     r9,r10,r9
    6dd0:	7d 29 03 a6 	mtctr   r9
    6dd4:	4e 80 04 20 	bctr
    6dd8:	89 3f 00 21 	lbz     r9,33(r31)
    6ddc:	55 29 06 3e 	clrlwi  r9,r9,24
    6de0:	55 29 06 f6 	rlwinm  r9,r9,0,27,27
    6de4:	2f 89 00 00 	cmpwi   cr7,r9,0
    6de8:	40 9e 00 48 	bne     cr7,6e30 <rt_vsnprintf+0x430>
    6dec:	48 00 00 2c 	b       6e18 <rt_vsnprintf+0x418>
    6df0:	81 5f 00 14 	lwz     r10,20(r31)
    6df4:	81 3f 00 18 	lwz     r9,24(r31)
    6df8:	7f 8a 48 40 	cmplw   cr7,r10,r9
    6dfc:	41 9d 00 10 	bgt     cr7,6e0c <rt_vsnprintf+0x40c>
    6e00:	81 3f 00 14 	lwz     r9,20(r31)
    6e04:	39 40 00 20 	li      r10,32
    6e08:	99 49 00 00 	stb     r10,0(r9)
    6e0c:	81 3f 00 14 	lwz     r9,20(r31)
    6e10:	39 29 00 01 	addi    r9,r9,1
    6e14:	91 3f 00 14 	stw     r9,20(r31)
    6e18:	81 3f 00 24 	lwz     r9,36(r31)
    6e1c:	39 29 ff ff 	addi    r9,r9,-1
    6e20:	91 3f 00 24 	stw     r9,36(r31)
    6e24:	81 3f 00 24 	lwz     r9,36(r31)
    6e28:	2f 89 00 00 	cmpwi   cr7,r9,0
    6e2c:	41 9d ff c4 	bgt     cr7,6df0 <rt_vsnprintf+0x3f0>
    6e30:	81 3f 00 44 	lwz     r9,68(r31)
    6e34:	89 29 00 00 	lbz     r9,0(r9)
    6e38:	55 29 06 3e 	clrlwi  r9,r9,24
    6e3c:	2b 89 00 08 	cmplwi  cr7,r9,8
    6e40:	40 9c 00 34 	bge     cr7,6e74 <rt_vsnprintf+0x474>
    6e44:	81 3f 00 44 	lwz     r9,68(r31)
    6e48:	81 49 00 08 	lwz     r10,8(r9)
    6e4c:	81 3f 00 44 	lwz     r9,68(r31)
    6e50:	89 29 00 00 	lbz     r9,0(r9)
    6e54:	55 29 06 3e 	clrlwi  r9,r9,24
    6e58:	39 09 00 01 	addi    r8,r9,1
    6e5c:	55 07 06 3e 	clrlwi  r7,r8,24
    6e60:	81 1f 00 44 	lwz     r8,68(r31)
    6e64:	98 e8 00 00 	stb     r7,0(r8)
    6e68:	55 29 10 3a 	rlwinm  r9,r9,2,0,29
    6e6c:	7d 2a 4a 14 	add     r9,r10,r9
    6e70:	48 00 00 18 	b       6e88 <rt_vsnprintf+0x488>
    6e74:	81 3f 00 44 	lwz     r9,68(r31)
    6e78:	81 29 00 04 	lwz     r9,4(r9)
    6e7c:	39 09 00 04 	addi    r8,r9,4
    6e80:	81 5f 00 44 	lwz     r10,68(r31)
    6e84:	91 0a 00 04 	stw     r8,4(r10)
    6e88:	81 29 00 00 	lwz     r9,0(r9)
    6e8c:	99 3f 00 2c 	stb     r9,44(r31)
    6e90:	81 5f 00 14 	lwz     r10,20(r31)
    6e94:	81 3f 00 18 	lwz     r9,24(r31)
    6e98:	7f 8a 48 40 	cmplw   cr7,r10,r9
    6e9c:	41 9d 00 10 	bgt     cr7,6eac <rt_vsnprintf+0x4ac>
    6ea0:	81 3f 00 14 	lwz     r9,20(r31)
    6ea4:	89 5f 00 2c 	lbz     r10,44(r31)
    6ea8:	99 49 00 00 	stb     r10,0(r9)
    6eac:	81 3f 00 14 	lwz     r9,20(r31)
    6eb0:	39 29 00 01 	addi    r9,r9,1
    6eb4:	91 3f 00 14 	stw     r9,20(r31)
    6eb8:	48 00 00 2c 	b       6ee4 <rt_vsnprintf+0x4e4>
    6ebc:	81 5f 00 14 	lwz     r10,20(r31)
    6ec0:	81 3f 00 18 	lwz     r9,24(r31)
    6ec4:	7f 8a 48 40 	cmplw   cr7,r10,r9
    6ec8:	41 9d 00 10 	bgt     cr7,6ed8 <rt_vsnprintf+0x4d8>
    6ecc:	81 3f 00 14 	lwz     r9,20(r31)
    6ed0:	39 40 00 20 	li      r10,32
    6ed4:	99 49 00 00 	stb     r10,0(r9)
    6ed8:	81 3f 00 14 	lwz     r9,20(r31)
    6edc:	39 29 00 01 	addi    r9,r9,1
    6ee0:	91 3f 00 14 	stw     r9,20(r31)
    6ee4:	81 3f 00 24 	lwz     r9,36(r31)
    6ee8:	39 29 ff ff 	addi    r9,r9,-1
    6eec:	91 3f 00 24 	stw     r9,36(r31)
    6ef0:	81 3f 00 24 	lwz     r9,36(r31)
    6ef4:	2f 89 00 00 	cmpwi   cr7,r9,0
    6ef8:	41 9d ff c4 	bgt     cr7,6ebc <rt_vsnprintf+0x4bc>
    6efc:	48 00 04 e8 	b       73e4 <rt_vsnprintf+0x9e4>
    6f00:	81 3f 00 44 	lwz     r9,68(r31)
    6f04:	89 29 00 00 	lbz     r9,0(r9)
    6f08:	55 29 06 3e 	clrlwi  r9,r9,24
    6f0c:	2b 89 00 08 	cmplwi  cr7,r9,8
    6f10:	40 9c 00 34 	bge     cr7,6f44 <rt_vsnprintf+0x544>
    6f14:	81 3f 00 44 	lwz     r9,68(r31)
    6f18:	81 49 00 08 	lwz     r10,8(r9)
    6f1c:	81 3f 00 44 	lwz     r9,68(r31)
    6f20:	89 29 00 00 	lbz     r9,0(r9)
    6f24:	55 29 06 3e 	clrlwi  r9,r9,24
    6f28:	39 09 00 01 	addi    r8,r9,1
    6f2c:	55 07 06 3e 	clrlwi  r7,r8,24
    6f30:	81 1f 00 44 	lwz     r8,68(r31)
    6f34:	98 e8 00 00 	stb     r7,0(r8)
    6f38:	55 29 10 3a 	rlwinm  r9,r9,2,0,29
    6f3c:	7d 2a 4a 14 	add     r9,r10,r9
    6f40:	48 00 00 18 	b       6f58 <rt_vsnprintf+0x558>
    6f44:	81 3f 00 44 	lwz     r9,68(r31)
    6f48:	81 29 00 04 	lwz     r9,4(r9)
    6f4c:	39 09 00 04 	addi    r8,r9,4
    6f50:	81 5f 00 44 	lwz     r10,68(r31)
    6f54:	91 0a 00 04 	stw     r8,4(r10)
    6f58:	81 29 00 00 	lwz     r9,0(r9)
    6f5c:	91 3f 00 1c 	stw     r9,28(r31)
    6f60:	81 3f 00 1c 	lwz     r9,28(r31)
    6f64:	2f 89 00 00 	cmpwi   cr7,r9,0
    6f68:	40 9e 00 10 	bne     cr7,6f78 <rt_vsnprintf+0x578>
    6f6c:	3d 20 00 02 	lis     r9,2
    6f70:	39 29 a1 a8 	addi    r9,r9,-24152
    6f74:	91 3f 00 1c 	stw     r9,28(r31)
    6f78:	80 7f 00 1c 	lwz     r3,28(r31)
    6f7c:	4b ff f4 75 	bl      63f0 <rt_strlen>
    6f80:	7c 69 1b 78 	mr      r9,r3
    6f84:	91 3f 00 10 	stw     r9,16(r31)
    6f88:	81 3f 00 28 	lwz     r9,40(r31)
    6f8c:	2f 89 00 00 	cmpwi   cr7,r9,0
    6f90:	40 9d 00 1c 	ble     cr7,6fac <rt_vsnprintf+0x5ac>
    6f94:	81 5f 00 10 	lwz     r10,16(r31)
    6f98:	81 3f 00 28 	lwz     r9,40(r31)
    6f9c:	7f 8a 48 00 	cmpw    cr7,r10,r9
    6fa0:	40 9d 00 0c 	ble     cr7,6fac <rt_vsnprintf+0x5ac>
    6fa4:	81 3f 00 28 	lwz     r9,40(r31)
    6fa8:	91 3f 00 10 	stw     r9,16(r31)
    6fac:	89 3f 00 21 	lbz     r9,33(r31)
    6fb0:	55 29 06 3e 	clrlwi  r9,r9,24
    6fb4:	55 29 06 f6 	rlwinm  r9,r9,0,27,27
    6fb8:	2f 89 00 00 	cmpwi   cr7,r9,0
    6fbc:	40 9e 00 48 	bne     cr7,7004 <rt_vsnprintf+0x604>
    6fc0:	48 00 00 2c 	b       6fec <rt_vsnprintf+0x5ec>
    6fc4:	81 5f 00 14 	lwz     r10,20(r31)
    6fc8:	81 3f 00 18 	lwz     r9,24(r31)
    6fcc:	7f 8a 48 40 	cmplw   cr7,r10,r9
    6fd0:	41 9d 00 10 	bgt     cr7,6fe0 <rt_vsnprintf+0x5e0>
    6fd4:	81 3f 00 14 	lwz     r9,20(r31)
    6fd8:	39 40 00 20 	li      r10,32
    6fdc:	99 49 00 00 	stb     r10,0(r9)
    6fe0:	81 3f 00 14 	lwz     r9,20(r31)
    6fe4:	39 29 00 01 	addi    r9,r9,1
    6fe8:	91 3f 00 14 	stw     r9,20(r31)
    6fec:	81 3f 00 24 	lwz     r9,36(r31)
    6ff0:	39 49 ff ff 	addi    r10,r9,-1
    6ff4:	91 5f 00 24 	stw     r10,36(r31)
    6ff8:	81 5f 00 10 	lwz     r10,16(r31)
    6ffc:	7f 89 50 00 	cmpw    cr7,r9,r10
    7000:	41 9d ff c4 	bgt     cr7,6fc4 <rt_vsnprintf+0x5c4>
    7004:	39 20 00 00 	li      r9,0
    7008:	91 3f 00 0c 	stw     r9,12(r31)
    700c:	48 00 00 4c 	b       7058 <rt_vsnprintf+0x658>
    7010:	81 5f 00 14 	lwz     r10,20(r31)
    7014:	81 3f 00 18 	lwz     r9,24(r31)
    7018:	7f 8a 48 40 	cmplw   cr7,r10,r9
    701c:	41 9d 00 18 	bgt     cr7,7034 <rt_vsnprintf+0x634>
    7020:	81 3f 00 1c 	lwz     r9,28(r31)
    7024:	89 29 00 00 	lbz     r9,0(r9)
    7028:	55 2a 06 3e 	clrlwi  r10,r9,24
    702c:	81 3f 00 14 	lwz     r9,20(r31)
    7030:	99 49 00 00 	stb     r10,0(r9)
    7034:	81 3f 00 14 	lwz     r9,20(r31)
    7038:	39 29 00 01 	addi    r9,r9,1
    703c:	91 3f 00 14 	stw     r9,20(r31)
    7040:	81 3f 00 1c 	lwz     r9,28(r31)
    7044:	39 29 00 01 	addi    r9,r9,1
    7048:	91 3f 00 1c 	stw     r9,28(r31)
    704c:	81 3f 00 0c 	lwz     r9,12(r31)
    7050:	39 29 00 01 	addi    r9,r9,1
    7054:	91 3f 00 0c 	stw     r9,12(r31)
    7058:	81 5f 00 0c 	lwz     r10,12(r31)
    705c:	81 3f 00 10 	lwz     r9,16(r31)
    7060:	7f 8a 48 00 	cmpw    cr7,r10,r9
    7064:	41 9c ff ac 	blt     cr7,7010 <rt_vsnprintf+0x610>
    7068:	48 00 00 2c 	b       7094 <rt_vsnprintf+0x694>
    706c:	81 5f 00 14 	lwz     r10,20(r31)
    7070:	81 3f 00 18 	lwz     r9,24(r31)
    7074:	7f 8a 48 40 	cmplw   cr7,r10,r9
    7078:	41 9d 00 10 	bgt     cr7,7088 <rt_vsnprintf+0x688>
    707c:	81 3f 00 14 	lwz     r9,20(r31)
    7080:	39 40 00 20 	li      r10,32
    7084:	99 49 00 00 	stb     r10,0(r9)
    7088:	81 3f 00 14 	lwz     r9,20(r31)
    708c:	39 29 00 01 	addi    r9,r9,1
    7090:	91 3f 00 14 	stw     r9,20(r31)
    7094:	81 3f 00 24 	lwz     r9,36(r31)
    7098:	39 49 ff ff 	addi    r10,r9,-1
    709c:	91 5f 00 24 	stw     r10,36(r31)
    70a0:	81 5f 00 10 	lwz     r10,16(r31)
    70a4:	7f 89 50 00 	cmpw    cr7,r9,r10
    70a8:	41 9d ff c4 	bgt     cr7,706c <rt_vsnprintf+0x66c>
    70ac:	48 00 03 38 	b       73e4 <rt_vsnprintf+0x9e4>
    70b0:	81 5f 00 24 	lwz     r10,36(r31)
    70b4:	39 20 ff ff 	li      r9,-1
    70b8:	7f 8a 48 00 	cmpw    cr7,r10,r9
    70bc:	40 9e 00 18 	bne     cr7,70d4 <rt_vsnprintf+0x6d4>
    70c0:	39 20 00 08 	li      r9,8
    70c4:	91 3f 00 24 	stw     r9,36(r31)
    70c8:	89 3f 00 21 	lbz     r9,33(r31)
    70cc:	61 29 00 01 	ori     r9,r9,1
    70d0:	99 3f 00 21 	stb     r9,33(r31)
    70d4:	81 3f 00 44 	lwz     r9,68(r31)
    70d8:	89 29 00 00 	lbz     r9,0(r9)
    70dc:	55 29 06 3e 	clrlwi  r9,r9,24
    70e0:	2b 89 00 08 	cmplwi  cr7,r9,8
    70e4:	40 9c 00 34 	bge     cr7,7118 <rt_vsnprintf+0x718>
    70e8:	81 3f 00 44 	lwz     r9,68(r31)
    70ec:	81 49 00 08 	lwz     r10,8(r9)
    70f0:	81 3f 00 44 	lwz     r9,68(r31)
    70f4:	89 29 00 00 	lbz     r9,0(r9)
    70f8:	55 29 06 3e 	clrlwi  r9,r9,24
    70fc:	39 09 00 01 	addi    r8,r9,1
    7100:	55 07 06 3e 	clrlwi  r7,r8,24
    7104:	81 1f 00 44 	lwz     r8,68(r31)
    7108:	98 e8 00 00 	stb     r7,0(r8)
    710c:	55 29 10 3a 	rlwinm  r9,r9,2,0,29
    7110:	7d 2a 4a 14 	add     r9,r10,r9
    7114:	48 00 00 18 	b       712c <rt_vsnprintf+0x72c>
    7118:	81 3f 00 44 	lwz     r9,68(r31)
    711c:	81 29 00 04 	lwz     r9,4(r9)
    7120:	39 09 00 04 	addi    r8,r9,4
    7124:	81 5f 00 44 	lwz     r10,68(r31)
    7128:	91 0a 00 04 	stw     r8,4(r10)
    712c:	81 29 00 00 	lwz     r9,0(r9)
    7130:	7d 2a 4b 78 	mr      r10,r9
    7134:	89 3f 00 21 	lbz     r9,33(r31)
    7138:	55 29 06 3e 	clrlwi  r9,r9,24
    713c:	80 7f 00 14 	lwz     r3,20(r31)
    7140:	80 9f 00 18 	lwz     r4,24(r31)
    7144:	7d 45 53 78 	mr      r5,r10
    7148:	38 c0 00 10 	li      r6,16
    714c:	80 ff 00 24 	lwz     r7,36(r31)
    7150:	81 1f 00 28 	lwz     r8,40(r31)
    7154:	4b ff f5 29 	bl      667c <print_number>
    7158:	90 7f 00 14 	stw     r3,20(r31)
    715c:	48 00 02 88 	b       73e4 <rt_vsnprintf+0x9e4>
    7160:	81 5f 00 14 	lwz     r10,20(r31)
    7164:	81 3f 00 18 	lwz     r9,24(r31)
    7168:	7f 8a 48 40 	cmplw   cr7,r10,r9
    716c:	41 9d 00 10 	bgt     cr7,717c <rt_vsnprintf+0x77c>
    7170:	81 3f 00 14 	lwz     r9,20(r31)
    7174:	39 40 00 25 	li      r10,37
    7178:	99 49 00 00 	stb     r10,0(r9)
    717c:	81 3f 00 14 	lwz     r9,20(r31)
    7180:	39 29 00 01 	addi    r9,r9,1
    7184:	91 3f 00 14 	stw     r9,20(r31)
    7188:	48 00 02 5c 	b       73e4 <rt_vsnprintf+0x9e4>
    718c:	39 20 00 08 	li      r9,8
    7190:	99 3f 00 20 	stb     r9,32(r31)
    7194:	48 00 00 b0 	b       7244 <rt_vsnprintf+0x844>
    7198:	89 3f 00 21 	lbz     r9,33(r31)
    719c:	61 29 00 40 	ori     r9,r9,64
    71a0:	99 3f 00 21 	stb     r9,33(r31)
    71a4:	39 20 00 10 	li      r9,16
    71a8:	99 3f 00 20 	stb     r9,32(r31)
    71ac:	48 00 00 98 	b       7244 <rt_vsnprintf+0x844>
    71b0:	89 3f 00 21 	lbz     r9,33(r31)
    71b4:	61 29 00 02 	ori     r9,r9,2
    71b8:	99 3f 00 21 	stb     r9,33(r31)
    71bc:	48 00 00 84 	b       7240 <rt_vsnprintf+0x840>
    71c0:	81 5f 00 14 	lwz     r10,20(r31)
    71c4:	81 3f 00 18 	lwz     r9,24(r31)
    71c8:	7f 8a 48 40 	cmplw   cr7,r10,r9
    71cc:	41 9d 00 10 	bgt     cr7,71dc <rt_vsnprintf+0x7dc>
    71d0:	81 3f 00 14 	lwz     r9,20(r31)
    71d4:	39 40 00 25 	li      r10,37
    71d8:	99 49 00 00 	stb     r10,0(r9)
    71dc:	81 3f 00 14 	lwz     r9,20(r31)
    71e0:	39 29 00 01 	addi    r9,r9,1
    71e4:	91 3f 00 14 	stw     r9,20(r31)
    71e8:	81 3f 00 40 	lwz     r9,64(r31)
    71ec:	89 29 00 00 	lbz     r9,0(r9)
    71f0:	55 29 06 3e 	clrlwi  r9,r9,24
    71f4:	2f 89 00 00 	cmpwi   cr7,r9,0
    71f8:	41 9e 00 38 	beq     cr7,7230 <rt_vsnprintf+0x830>
    71fc:	81 5f 00 14 	lwz     r10,20(r31)
    7200:	81 3f 00 18 	lwz     r9,24(r31)
    7204:	7f 8a 48 40 	cmplw   cr7,r10,r9
    7208:	41 9d 00 18 	bgt     cr7,7220 <rt_vsnprintf+0x820>
    720c:	81 3f 00 40 	lwz     r9,64(r31)
    7210:	89 29 00 00 	lbz     r9,0(r9)
    7214:	55 2a 06 3e 	clrlwi  r10,r9,24
    7218:	81 3f 00 14 	lwz     r9,20(r31)
    721c:	99 49 00 00 	stb     r10,0(r9)
    7220:	81 3f 00 14 	lwz     r9,20(r31)
    7224:	39 29 00 01 	addi    r9,r9,1
    7228:	91 3f 00 14 	stw     r9,20(r31)
    722c:	48 00 01 b8 	b       73e4 <rt_vsnprintf+0x9e4>
    7230:	81 3f 00 40 	lwz     r9,64(r31)
    7234:	39 29 ff ff 	addi    r9,r9,-1
    7238:	91 3f 00 40 	stw     r9,64(r31)
    723c:	48 00 01 a8 	b       73e4 <rt_vsnprintf+0x9e4>
    7240:	60 00 00 00 	nop
    7244:	89 3f 00 22 	lbz     r9,34(r31)
    7248:	55 29 06 3e 	clrlwi  r9,r9,24
    724c:	2f 89 00 6c 	cmpwi   cr7,r9,108
    7250:	40 9e 00 68 	bne     cr7,72b8 <rt_vsnprintf+0x8b8>
    7254:	81 3f 00 44 	lwz     r9,68(r31)
    7258:	89 29 00 00 	lbz     r9,0(r9)
    725c:	55 29 06 3e 	clrlwi  r9,r9,24
    7260:	2b 89 00 08 	cmplwi  cr7,r9,8
    7264:	40 9c 00 34 	bge     cr7,7298 <rt_vsnprintf+0x898>
    7268:	81 3f 00 44 	lwz     r9,68(r31)
    726c:	81 49 00 08 	lwz     r10,8(r9)
    7270:	81 3f 00 44 	lwz     r9,68(r31)
    7274:	89 29 00 00 	lbz     r9,0(r9)
    7278:	55 29 06 3e 	clrlwi  r9,r9,24
    727c:	39 09 00 01 	addi    r8,r9,1
    7280:	55 07 06 3e 	clrlwi  r7,r8,24
    7284:	81 1f 00 44 	lwz     r8,68(r31)
    7288:	98 e8 00 00 	stb     r7,0(r8)
    728c:	55 29 10 3a 	rlwinm  r9,r9,2,0,29
    7290:	7d 2a 4a 14 	add     r9,r10,r9
    7294:	48 00 00 18 	b       72ac <rt_vsnprintf+0x8ac>
    7298:	81 3f 00 44 	lwz     r9,68(r31)
    729c:	81 29 00 04 	lwz     r9,4(r9)
    72a0:	39 09 00 04 	addi    r8,r9,4
    72a4:	81 5f 00 44 	lwz     r10,68(r31)
    72a8:	91 0a 00 04 	stw     r8,4(r10)
    72ac:	81 29 00 00 	lwz     r9,0(r9)
    72b0:	91 3f 00 08 	stw     r9,8(r31)
    72b4:	48 00 00 fc 	b       73b0 <rt_vsnprintf+0x9b0>
    72b8:	89 3f 00 22 	lbz     r9,34(r31)
    72bc:	55 29 06 3e 	clrlwi  r9,r9,24
    72c0:	2f 89 00 68 	cmpwi   cr7,r9,104
    72c4:	40 9e 00 8c 	bne     cr7,7350 <rt_vsnprintf+0x950>
    72c8:	81 3f 00 44 	lwz     r9,68(r31)
    72cc:	89 29 00 00 	lbz     r9,0(r9)
    72d0:	55 29 06 3e 	clrlwi  r9,r9,24
    72d4:	2b 89 00 08 	cmplwi  cr7,r9,8
    72d8:	40 9c 00 34 	bge     cr7,730c <rt_vsnprintf+0x90c>
    72dc:	81 3f 00 44 	lwz     r9,68(r31)
    72e0:	81 49 00 08 	lwz     r10,8(r9)
    72e4:	81 3f 00 44 	lwz     r9,68(r31)
    72e8:	89 29 00 00 	lbz     r9,0(r9)
    72ec:	55 29 06 3e 	clrlwi  r9,r9,24
    72f0:	39 09 00 01 	addi    r8,r9,1
    72f4:	55 07 06 3e 	clrlwi  r7,r8,24
    72f8:	81 1f 00 44 	lwz     r8,68(r31)
    72fc:	98 e8 00 00 	stb     r7,0(r8)
    7300:	55 29 10 3a 	rlwinm  r9,r9,2,0,29
    7304:	7d 2a 4a 14 	add     r9,r10,r9
    7308:	48 00 00 18 	b       7320 <rt_vsnprintf+0x920>
    730c:	81 3f 00 44 	lwz     r9,68(r31)
    7310:	81 29 00 04 	lwz     r9,4(r9)
    7314:	39 09 00 04 	addi    r8,r9,4
    7318:	81 5f 00 44 	lwz     r10,68(r31)
    731c:	91 0a 00 04 	stw     r8,4(r10)
    7320:	81 29 00 00 	lwz     r9,0(r9)
    7324:	55 29 04 3e 	clrlwi  r9,r9,16
    7328:	91 3f 00 08 	stw     r9,8(r31)
    732c:	89 3f 00 21 	lbz     r9,33(r31)
    7330:	55 29 06 3e 	clrlwi  r9,r9,24
    7334:	55 29 07 bc 	rlwinm  r9,r9,0,30,30
    7338:	2f 89 00 00 	cmpwi   cr7,r9,0
    733c:	41 9e 00 74 	beq     cr7,73b0 <rt_vsnprintf+0x9b0>
    7340:	81 3f 00 08 	lwz     r9,8(r31)
    7344:	7d 29 07 34 	extsh   r9,r9
    7348:	91 3f 00 08 	stw     r9,8(r31)
    734c:	48 00 00 64 	b       73b0 <rt_vsnprintf+0x9b0>
    7350:	81 3f 00 44 	lwz     r9,68(r31)
    7354:	89 29 00 00 	lbz     r9,0(r9)
    7358:	55 29 06 3e 	clrlwi  r9,r9,24
    735c:	2b 89 00 08 	cmplwi  cr7,r9,8
    7360:	40 9c 00 34 	bge     cr7,7394 <rt_vsnprintf+0x994>
    7364:	81 3f 00 44 	lwz     r9,68(r31)
    7368:	81 49 00 08 	lwz     r10,8(r9)
    736c:	81 3f 00 44 	lwz     r9,68(r31)
    7370:	89 29 00 00 	lbz     r9,0(r9)
    7374:	55 29 06 3e 	clrlwi  r9,r9,24
    7378:	39 09 00 01 	addi    r8,r9,1
    737c:	55 07 06 3e 	clrlwi  r7,r8,24
    7380:	81 1f 00 44 	lwz     r8,68(r31)
    7384:	98 e8 00 00 	stb     r7,0(r8)
    7388:	55 29 10 3a 	rlwinm  r9,r9,2,0,29
    738c:	7d 2a 4a 14 	add     r9,r10,r9
    7390:	48 00 00 18 	b       73a8 <rt_vsnprintf+0x9a8>
    7394:	81 3f 00 44 	lwz     r9,68(r31)
    7398:	81 29 00 04 	lwz     r9,4(r9)
    739c:	39 09 00 04 	addi    r8,r9,4
    73a0:	81 5f 00 44 	lwz     r10,68(r31)
    73a4:	91 0a 00 04 	stw     r8,4(r10)
    73a8:	81 29 00 00 	lwz     r9,0(r9)
    73ac:	91 3f 00 08 	stw     r9,8(r31)
    73b0:	81 1f 00 08 	lwz     r8,8(r31)
    73b4:	89 3f 00 20 	lbz     r9,32(r31)
    73b8:	55 2a 06 3e 	clrlwi  r10,r9,24
    73bc:	89 3f 00 21 	lbz     r9,33(r31)
    73c0:	55 29 06 3e 	clrlwi  r9,r9,24
    73c4:	80 7f 00 14 	lwz     r3,20(r31)
    73c8:	80 9f 00 18 	lwz     r4,24(r31)
    73cc:	7d 05 43 78 	mr      r5,r8
    73d0:	7d 46 53 78 	mr      r6,r10
    73d4:	80 ff 00 24 	lwz     r7,36(r31)
    73d8:	81 1f 00 28 	lwz     r8,40(r31)
    73dc:	4b ff f2 a1 	bl      667c <print_number>
    73e0:	90 7f 00 14 	stw     r3,20(r31)
    73e4:	81 3f 00 40 	lwz     r9,64(r31)
    73e8:	39 29 00 01 	addi    r9,r9,1
    73ec:	91 3f 00 40 	stw     r9,64(r31)
    73f0:	81 3f 00 40 	lwz     r9,64(r31)
    73f4:	89 29 00 00 	lbz     r9,0(r9)
    73f8:	55 29 06 3e 	clrlwi  r9,r9,24
    73fc:	2f 89 00 00 	cmpwi   cr7,r9,0
    7400:	40 9e f6 6c 	bne     cr7,6a6c <rt_vsnprintf+0x6c>
    7404:	81 5f 00 14 	lwz     r10,20(r31)
    7408:	81 3f 00 18 	lwz     r9,24(r31)
    740c:	7f 8a 48 40 	cmplw   cr7,r10,r9
    7410:	41 9d 00 14 	bgt     cr7,7424 <rt_vsnprintf+0xa24>
    7414:	81 3f 00 14 	lwz     r9,20(r31)
    7418:	39 40 00 00 	li      r10,0
    741c:	99 49 00 00 	stb     r10,0(r9)
    7420:	48 00 00 10 	b       7430 <rt_vsnprintf+0xa30>
    7424:	81 3f 00 18 	lwz     r9,24(r31)
    7428:	39 40 00 00 	li      r10,0
    742c:	99 49 00 00 	stb     r10,0(r9)
    7430:	81 5f 00 14 	lwz     r10,20(r31)
    7434:	81 3f 00 38 	lwz     r9,56(r31)
    7438:	7d 29 50 50 	subf    r9,r9,r10
    743c:	7d 23 4b 78 	mr      r3,r9
    7440:	39 7f 00 50 	addi    r11,r31,80
    7444:	80 0b 00 04 	lwz     r0,4(r11)
    7448:	7c 08 03 a6 	mtlr    r0
    744c:	83 eb ff fc 	lwz     r31,-4(r11)
    7450:	7d 61 5b 78 	mr      r1,r11
    7454:	4e 80 00 20 	blr

00007458 <rt_snprintf>:
    7458:	94 21 ff b0 	stwu    r1,-80(r1)
    745c:	7c 08 02 a6 	mflr    r0
    7460:	90 01 00 54 	stw     r0,84(r1)
    7464:	93 e1 00 4c 	stw     r31,76(r1)
    7468:	7c 3f 0b 78 	mr      r31,r1
    746c:	90 7f 00 18 	stw     r3,24(r31)
    7470:	90 9f 00 1c 	stw     r4,28(r31)
    7474:	90 df 00 24 	stw     r6,36(r31)
    7478:	90 ff 00 28 	stw     r7,40(r31)
    747c:	91 1f 00 2c 	stw     r8,44(r31)
    7480:	91 3f 00 30 	stw     r9,48(r31)
    7484:	91 5f 00 34 	stw     r10,52(r31)
    7488:	90 bf 00 38 	stw     r5,56(r31)
    748c:	39 20 00 03 	li      r9,3
    7490:	99 3f 00 0c 	stb     r9,12(r31)
    7494:	39 20 00 00 	li      r9,0
    7498:	99 3f 00 0d 	stb     r9,13(r31)
    749c:	39 3f 00 58 	addi    r9,r31,88
    74a0:	91 3f 00 10 	stw     r9,16(r31)
    74a4:	39 3f 00 18 	addi    r9,r31,24
    74a8:	91 3f 00 14 	stw     r9,20(r31)
    74ac:	39 3f 00 0c 	addi    r9,r31,12
    74b0:	80 7f 00 18 	lwz     r3,24(r31)
    74b4:	80 9f 00 1c 	lwz     r4,28(r31)
    74b8:	80 bf 00 38 	lwz     r5,56(r31)
    74bc:	7d 26 4b 78 	mr      r6,r9
    74c0:	4b ff f5 41 	bl      6a00 <rt_vsnprintf>
    74c4:	90 7f 00 08 	stw     r3,8(r31)
    74c8:	81 3f 00 08 	lwz     r9,8(r31)
    74cc:	7d 23 4b 78 	mr      r3,r9
    74d0:	39 7f 00 50 	addi    r11,r31,80
    74d4:	80 0b 00 04 	lwz     r0,4(r11)
    74d8:	7c 08 03 a6 	mtlr    r0
    74dc:	83 eb ff fc 	lwz     r31,-4(r11)
    74e0:	7d 61 5b 78 	mr      r1,r11
    74e4:	4e 80 00 20 	blr

000074e8 <rt_vsprintf>:
    74e8:	94 21 ff e0 	stwu    r1,-32(r1)
    74ec:	7c 08 02 a6 	mflr    r0
    74f0:	90 01 00 24 	stw     r0,36(r1)
    74f4:	93 e1 00 1c 	stw     r31,28(r1)
    74f8:	7c 3f 0b 78 	mr      r31,r1
    74fc:	90 7f 00 08 	stw     r3,8(r31)
    7500:	90 9f 00 0c 	stw     r4,12(r31)
    7504:	90 bf 00 10 	stw     r5,16(r31)
    7508:	80 7f 00 08 	lwz     r3,8(r31)
    750c:	38 80 ff ff 	li      r4,-1
    7510:	80 bf 00 0c 	lwz     r5,12(r31)
    7514:	80 df 00 10 	lwz     r6,16(r31)
    7518:	4b ff f4 e9 	bl      6a00 <rt_vsnprintf>
    751c:	7c 69 1b 78 	mr      r9,r3
    7520:	7d 23 4b 78 	mr      r3,r9
    7524:	39 7f 00 20 	addi    r11,r31,32
    7528:	80 0b 00 04 	lwz     r0,4(r11)
    752c:	7c 08 03 a6 	mtlr    r0
    7530:	83 eb ff fc 	lwz     r31,-4(r11)
    7534:	7d 61 5b 78 	mr      r1,r11
    7538:	4e 80 00 20 	blr

0000753c <rt_sprintf>:
    753c:	94 21 ff c0 	stwu    r1,-64(r1)
    7540:	7c 08 02 a6 	mflr    r0
    7544:	90 01 00 44 	stw     r0,68(r1)
    7548:	93 e1 00 3c 	stw     r31,60(r1)
    754c:	7c 3f 0b 78 	mr      r31,r1
    7550:	90 7f 00 18 	stw     r3,24(r31)
    7554:	90 bf 00 20 	stw     r5,32(r31)
    7558:	90 df 00 24 	stw     r6,36(r31)
    755c:	90 ff 00 28 	stw     r7,40(r31)
    7560:	91 1f 00 2c 	stw     r8,44(r31)
    7564:	91 3f 00 30 	stw     r9,48(r31)
    7568:	91 5f 00 34 	stw     r10,52(r31)
    756c:	90 9f 00 1c 	stw     r4,28(r31)
    7570:	39 20 00 02 	li      r9,2
    7574:	99 3f 00 0c 	stb     r9,12(r31)
    7578:	39 20 00 00 	li      r9,0
    757c:	99 3f 00 0d 	stb     r9,13(r31)
    7580:	39 3f 00 48 	addi    r9,r31,72
    7584:	91 3f 00 10 	stw     r9,16(r31)
    7588:	39 3f 00 18 	addi    r9,r31,24
    758c:	91 3f 00 14 	stw     r9,20(r31)
    7590:	39 3f 00 0c 	addi    r9,r31,12
    7594:	80 7f 00 18 	lwz     r3,24(r31)
    7598:	80 9f 00 1c 	lwz     r4,28(r31)
    759c:	7d 25 4b 78 	mr      r5,r9
    75a0:	4b ff ff 49 	bl      74e8 <rt_vsprintf>
    75a4:	90 7f 00 08 	stw     r3,8(r31)
    75a8:	81 3f 00 08 	lwz     r9,8(r31)
    75ac:	7d 23 4b 78 	mr      r3,r9
    75b0:	39 7f 00 40 	addi    r11,r31,64
    75b4:	80 0b 00 04 	lwz     r0,4(r11)
    75b8:	7c 08 03 a6 	mtlr    r0
    75bc:	83 eb ff fc 	lwz     r31,-4(r11)
    75c0:	7d 61 5b 78 	mr      r1,r11
    75c4:	4e 80 00 20 	blr

000075c8 <rt_console_get_device>:
    75c8:	94 21 ff f0 	stwu    r1,-16(r1)
    75cc:	93 e1 00 0c 	stw     r31,12(r1)
    75d0:	7c 3f 0b 78 	mr      r31,r1
    75d4:	3d 20 00 02 	lis     r9,2
